---
triple:          'arm64-apple-darwin'
binary-path:     '/Users/mazinsw/Library/Developer/Xcode/DerivedData/Chordino-dveuouofqkigcfbnaewrmqfpqxbm/Build/Intermediates.noindex/ArchiveIntermediates/Chordino/InstallationBuildProductsLocation/Library/Frameworks/Chordino.framework/Chordino'
relocations:
  - { offsetInCU: 0x33, offset: 0x1CBB4, size: 0x8, addend: 0x0, symName: _ChordinoVersionString, symObjAddr: 0x0, symBinAddr: 0x2AA30, symSize: 0x0 }
  - { offsetInCU: 0x67, offset: 0x1CBE8, size: 0x8, addend: 0x0, symName: _ChordinoVersionNumber, symObjAddr: 0x30, symBinAddr: 0x2AA60, symSize: 0x0 }
  - { offsetInCU: 0x26, offset: 0x1CC23, size: 0x8, addend: 0x0, symName: _d_sign, symObjAddr: 0x0, symBinAddr: 0x4000, symSize: 0x1C }
  - { offsetInCU: 0x3F, offset: 0x1CC3C, size: 0x8, addend: 0x0, symName: _c__1, symObjAddr: 0xC68, symBinAddr: 0x38328, symSize: 0x0 }
  - { offsetInCU: 0x5B, offset: 0x1CC58, size: 0x8, addend: 0x0, symName: _c__0, symObjAddr: 0x3DF4, symBinAddr: 0x38330, symSize: 0x0 }
  - { offsetInCU: 0x70, offset: 0x1CC6D, size: 0x8, addend: 0x0, symName: _c__2, symObjAddr: 0xC6C, symBinAddr: 0x3832C, symSize: 0x0 }
  - { offsetInCU: 0x80, offset: 0x1CC7D, size: 0x8, addend: 0x0, symName: _d_sign, symObjAddr: 0x0, symBinAddr: 0x4000, symSize: 0x1C }
  - { offsetInCU: 0xE3, offset: 0x1CCE0, size: 0x8, addend: 0x0, symName: _g1, symObjAddr: 0x1C, symBinAddr: 0x401C, symSize: 0xFC }
  - { offsetInCU: 0x1D5, offset: 0x1CDD2, size: 0x8, addend: 0x0, symName: _h12, symObjAddr: 0x118, symBinAddr: 0x4118, symSize: 0x228 }
  - { offsetInCU: 0x3FF, offset: 0x1CFFC, size: 0x8, addend: 0x0, symName: _nnls, symObjAddr: 0x340, symBinAddr: 0x4340, symSize: 0x91C }
  - { offsetInCU: 0x59, offset: 0x1D4C5, size: 0x8, addend: 0x0, symName: __ZN9_VampHost4Vamp8RealTime8zeroTimeE, symObjAddr: 0x10A4, symBinAddr: 0x2AA78, symSize: 0x0 }
  - { offsetInCU: 0x2F6, offset: 0x1D762, size: 0x8, addend: 0x0, symName: __ZN9_VampHost4VamplsERNSt3__113basic_ostreamIcNS1_11char_traitsIcEEEERKNS0_8RealTimeE, symObjAddr: 0x27C, symBinAddr: 0x4ED8, symSize: 0x108 }
  - { offsetInCU: 0x393B, offset: 0x20DA7, size: 0x8, addend: 0x0, symName: __ZNSt3__124__put_character_sequenceB7v160006IcNS_11char_traitsIcEEEERNS_13basic_ostreamIT_T0_EES7_PKS4_m, symObjAddr: 0xB80, symBinAddr: 0x57DC, symSize: 0x164 }
  - { offsetInCU: 0x5688, offset: 0x22AF4, size: 0x8, addend: 0x0, symName: __ZNSt3__14endlB7v160006IcNS_11char_traitsIcEEEERNS_13basic_ostreamIT_T0_EES7_, symObjAddr: 0x1A0, symBinAddr: 0x4DFC, symSize: 0x90 }
  - { offsetInCU: 0x66F4, offset: 0x23B60, size: 0x8, addend: 0x0, symName: __ZNSt3__116__pad_and_outputB7v160006IcNS_11char_traitsIcEEEENS_19ostreambuf_iteratorIT_T0_EES6_PKS4_S8_S8_RNS_8ios_baseES4_, symObjAddr: 0xCE4, symBinAddr: 0x5940, symSize: 0x13C }
  - { offsetInCU: 0x6DA7, offset: 0x24213, size: 0x8, addend: 0x0, symName: __ZNSt3__120__throw_length_errorB7v160006EPKc, symObjAddr: 0xECC, symBinAddr: 0x5B28, symSize: 0x50 }
  - { offsetInCU: 0x96D4, offset: 0x26B40, size: 0x8, addend: 0x0, symName: __ZN9_VampHost4Vamp8RealTimeC2Eii, symObjAddr: 0x0, symBinAddr: 0x4C5C, symSize: 0xF0 }
  - { offsetInCU: 0x971F, offset: 0x26B8B, size: 0x8, addend: 0x0, symName: __ZN9_VampHost4Vamp8RealTimeC1Eii, symObjAddr: 0xF0, symBinAddr: 0x4D4C, symSize: 0x4 }
  - { offsetInCU: 0x9753, offset: 0x26BBF, size: 0x8, addend: 0x0, symName: __ZN9_VampHost4Vamp8RealTimeC1Eii, symObjAddr: 0xF0, symBinAddr: 0x4D4C, symSize: 0x4 }
  - { offsetInCU: 0x9844, offset: 0x26CB0, size: 0x8, addend: 0x0, symName: __ZN9_VampHost4Vamp8RealTime11fromSecondsEd, symObjAddr: 0xF4, symBinAddr: 0x4D50, symSize: 0xAC }
  - { offsetInCU: 0x9A62, offset: 0x26ECE, size: 0x8, addend: 0x0, symName: __ZN9_VampHost4Vamp8RealTime16fromMillisecondsEi, symObjAddr: 0x230, symBinAddr: 0x4E8C, symSize: 0x34 }
  - { offsetInCU: 0x9ACE, offset: 0x26F3A, size: 0x8, addend: 0x0, symName: __ZN9_VampHost4Vamp8RealTime11fromTimevalERK7timeval, symObjAddr: 0x264, symBinAddr: 0x4EC0, symSize: 0x18 }
  - { offsetInCU: 0x9E21, offset: 0x2728D, size: 0x8, addend: 0x0, symName: __ZNK9_VampHost4Vamp8RealTime8toStringEv, symObjAddr: 0x384, symBinAddr: 0x4FE0, symSize: 0x120 }
  - { offsetInCU: 0xA393, offset: 0x277FF, size: 0x8, addend: 0x0, symName: __ZNSt3__118basic_stringstreamIcNS_11char_traitsIcEENS_9allocatorIcEEEC1B7v160006Ev, symObjAddr: 0x4A4, symBinAddr: 0x5100, symSize: 0x12C }
  - { offsetInCU: 0xA4B0, offset: 0x2791C, size: 0x8, addend: 0x0, symName: __ZNSt3__118basic_stringstreamIcNS_11char_traitsIcEENS_9allocatorIcEEED1Ev, symObjAddr: 0x5D0, symBinAddr: 0x522C, symSize: 0x88 }
  - { offsetInCU: 0xA7F0, offset: 0x27C5C, size: 0x8, addend: 0x0, symName: __ZNK9_VampHost4Vamp8RealTime6toTextEb, symObjAddr: 0x658, symBinAddr: 0x52B4, symSize: 0x384 }
  - { offsetInCU: 0xAF90, offset: 0x283FC, size: 0x8, addend: 0x0, symName: __ZNK9_VampHost4Vamp8RealTimedvEi, symObjAddr: 0x9DC, symBinAddr: 0x5638, symSize: 0x40 }
  - { offsetInCU: 0xB03E, offset: 0x284AA, size: 0x8, addend: 0x0, symName: __ZNK9_VampHost4Vamp8RealTimedvERKS1_, symObjAddr: 0xA1C, symBinAddr: 0x5678, symSize: 0x40 }
  - { offsetInCU: 0xB093, offset: 0x284FF, size: 0x8, addend: 0x0, symName: __ZN9_VampHost4Vamp8RealTime14realTime2FrameERKS1_j, symObjAddr: 0xA5C, symBinAddr: 0x56B8, symSize: 0x88 }
  - { offsetInCU: 0xB16B, offset: 0x285D7, size: 0x8, addend: 0x0, symName: __ZN9_VampHost4Vamp8RealTime14frame2RealTimeElj, symObjAddr: 0xAE4, symBinAddr: 0x5740, symSize: 0x90 }
  - { offsetInCU: 0xB491, offset: 0x288FD, size: 0x8, addend: 0x0, symName: __ZNSt3__112basic_stringIcNS_11char_traitsIcEENS_9allocatorIcEEEC2B7v160006Emc, symObjAddr: 0xE20, symBinAddr: 0x5A7C, symSize: 0x98 }
  - { offsetInCU: 0xB6CB, offset: 0x28B37, size: 0x8, addend: 0x0, symName: __ZNKSt3__112basic_stringIcNS_11char_traitsIcEENS_9allocatorIcEEE20__throw_length_errorB7v160006Ev, symObjAddr: 0xEB8, symBinAddr: 0x5B14, symSize: 0x14 }
  - { offsetInCU: 0xB827, offset: 0x28C93, size: 0x8, addend: 0x0, symName: __ZNKSt3__112basic_stringIcNS_11char_traitsIcEENS_9allocatorIcEEE20__throw_length_errorB7v160006Ev, symObjAddr: 0xEB8, symBinAddr: 0x5B14, symSize: 0x14 }
  - { offsetInCU: 0xB851, offset: 0x28CBD, size: 0x8, addend: 0x0, symName: __ZNSt3__120__throw_length_errorB7v160006EPKc, symObjAddr: 0xECC, symBinAddr: 0x5B28, symSize: 0x50 }
  - { offsetInCU: 0xB85C, offset: 0x28CC8, size: 0x8, addend: 0x0, symName: __ZNSt12length_errorC1B7v160006EPKc, symObjAddr: 0xF1C, symBinAddr: 0x5B78, symSize: 0x24 }
  - { offsetInCU: 0x26, offset: 0x28D7F, size: 0x8, addend: 0x0, symName: __ZN9_VampHost4Vamp7HostExt20PluginChannelAdapterC2EPNS0_6PluginE, symObjAddr: 0x0, symBinAddr: 0x5B9C, symSize: 0x68 }
  - { offsetInCU: 0xC207, offset: 0x34F60, size: 0x8, addend: 0x0, symName: __ZN9_VampHost4Vamp7HostExt20PluginChannelAdapterC2EPNS0_6PluginE, symObjAddr: 0x0, symBinAddr: 0x5B9C, symSize: 0x68 }
  - { offsetInCU: 0xC290, offset: 0x34FE9, size: 0x8, addend: 0x0, symName: __ZN9_VampHost4Vamp7HostExt20PluginChannelAdapter4ImplC1EPNS0_6PluginE, symObjAddr: 0x68, symBinAddr: 0x5C04, symSize: 0x18 }
  - { offsetInCU: 0xC2BC, offset: 0x35015, size: 0x8, addend: 0x0, symName: __ZN9_VampHost4Vamp7HostExt20PluginChannelAdapter4ImplC1EPNS0_6PluginE, symObjAddr: 0x68, symBinAddr: 0x5C04, symSize: 0x18 }
  - { offsetInCU: 0xC2E0, offset: 0x35039, size: 0x8, addend: 0x0, symName: __ZN9_VampHost4Vamp7HostExt20PluginChannelAdapterC1EPNS0_6PluginE, symObjAddr: 0x80, symBinAddr: 0x5C1C, symSize: 0x4 }
  - { offsetInCU: 0xC31C, offset: 0x35075, size: 0x8, addend: 0x0, symName: __ZN9_VampHost4Vamp7HostExt20PluginChannelAdapterC1EPNS0_6PluginE, symObjAddr: 0x80, symBinAddr: 0x5C1C, symSize: 0x4 }
  - { offsetInCU: 0xC352, offset: 0x350AB, size: 0x8, addend: 0x0, symName: __ZN9_VampHost4Vamp7HostExt20PluginChannelAdapterD2Ev, symObjAddr: 0x84, symBinAddr: 0x5C20, symSize: 0x3C }
  - { offsetInCU: 0xC3AC, offset: 0x35105, size: 0x8, addend: 0x0, symName: __ZN9_VampHost4Vamp7HostExt20PluginChannelAdapter4ImplD2Ev, symObjAddr: 0x568, symBinAddr: 0x6104, symSize: 0xD8 }
  - { offsetInCU: 0xC415, offset: 0x3516E, size: 0x8, addend: 0x0, symName: __ZN9_VampHost4Vamp7HostExt20PluginChannelAdapter4ImplD1Ev, symObjAddr: 0xC0, symBinAddr: 0x5C5C, symSize: 0x4 }
  - { offsetInCU: 0xC43A, offset: 0x35193, size: 0x8, addend: 0x0, symName: __ZN9_VampHost4Vamp7HostExt20PluginChannelAdapter4ImplD1Ev, symObjAddr: 0xC0, symBinAddr: 0x5C5C, symSize: 0x4 }
  - { offsetInCU: 0xC44D, offset: 0x351A6, size: 0x8, addend: 0x0, symName: __ZN9_VampHost4Vamp7HostExt20PluginChannelAdapterD1Ev, symObjAddr: 0xC4, symBinAddr: 0x5C60, symSize: 0x4 }
  - { offsetInCU: 0xC472, offset: 0x351CB, size: 0x8, addend: 0x0, symName: __ZN9_VampHost4Vamp7HostExt20PluginChannelAdapterD1Ev, symObjAddr: 0xC4, symBinAddr: 0x5C60, symSize: 0x4 }
  - { offsetInCU: 0xC4A6, offset: 0x351FF, size: 0x8, addend: 0x0, symName: __ZN9_VampHost4Vamp7HostExt20PluginChannelAdapterD0Ev, symObjAddr: 0xC8, symBinAddr: 0x5C64, symSize: 0x14 }
  - { offsetInCU: 0xC507, offset: 0x35260, size: 0x8, addend: 0x0, symName: __ZN9_VampHost4Vamp7HostExt20PluginChannelAdapter10initialiseEmmm, symObjAddr: 0xDC, symBinAddr: 0x5C78, symSize: 0x8 }
  - { offsetInCU: 0xC581, offset: 0x352DA, size: 0x8, addend: 0x0, symName: __ZN9_VampHost4Vamp7HostExt20PluginChannelAdapter4Impl10initialiseEmmm, symObjAddr: 0xE4, symBinAddr: 0x5C80, symSize: 0x154 }
  - { offsetInCU: 0xC6C0, offset: 0x35419, size: 0x8, addend: 0x0, symName: __ZN9_VampHost4Vamp7HostExt20PluginChannelAdapter7processEPKPKfNS0_8RealTimeE, symObjAddr: 0x238, symBinAddr: 0x5DD4, symSize: 0x2C }
  - { offsetInCU: 0xC77F, offset: 0x354D8, size: 0x8, addend: 0x0, symName: __ZN9_VampHost4Vamp7HostExt20PluginChannelAdapter4Impl7processEPKPKfNS0_8RealTimeE, symObjAddr: 0x264, symBinAddr: 0x5E00, symSize: 0x1B8 }
  - { offsetInCU: 0xC9F5, offset: 0x3574E, size: 0x8, addend: 0x0, symName: __ZN9_VampHost4Vamp7HostExt20PluginChannelAdapter18processInterleavedEPKfNS0_8RealTimeE, symObjAddr: 0x41C, symBinAddr: 0x5FB8, symSize: 0x2C }
  - { offsetInCU: 0xCAB4, offset: 0x3580D, size: 0x8, addend: 0x0, symName: __ZN9_VampHost4Vamp7HostExt20PluginChannelAdapter4Impl18processInterleavedEPKfNS0_8RealTimeE, symObjAddr: 0x448, symBinAddr: 0x5FE4, symSize: 0x108 }
  - { offsetInCU: 0xCBCC, offset: 0x35925, size: 0x8, addend: 0x0, symName: __ZN9_VampHost4Vamp7HostExt20PluginChannelAdapter4ImplC2EPNS0_6PluginE, symObjAddr: 0x550, symBinAddr: 0x60EC, symSize: 0x18 }
  - { offsetInCU: 0xCC28, offset: 0x35981, size: 0x8, addend: 0x0, symName: __ZNK9_VampHost4Vamp6Plugin7getTypeEv, symObjAddr: 0x640, symBinAddr: 0x61DC, symSize: 0x10 }
  - { offsetInCU: 0xCC8F, offset: 0x359E8, size: 0x8, addend: 0x0, symName: __ZNSt3__112basic_stringIcNS_11char_traitsIcEENS_9allocatorIcEEEC2B7v160006IDnEEPKc, symObjAddr: 0x650, symBinAddr: 0x61EC, symSize: 0x9C }
  - { offsetInCU: 0x1033, offset: 0x37069, size: 0x8, addend: 0x0, symName: __ZN5boost9iostreams6detail11execute_allINS1_22member_close_operationINS1_16linked_streambufIcNSt3__111char_traitsIcEEEEEES9_NS1_15reset_operationINS1_8optionalINS1_15concept_adapterINS0_17basic_file_sourceIcEEEEEEEENS1_21clear_flags_operationIiEEEENS1_14execute_traitsIT_NS_9result_ofIFSL_vEE4typeEE11result_typeESL_T0_T1_T2_, symObjAddr: 0x651C, symBinAddr: 0xC798, symSize: 0x48 }
  - { offsetInCU: 0x12A7, offset: 0x372DD, size: 0x8, addend: 0x0, symName: __ZN5boost9iostreams6detail11bad_putbackEv, symObjAddr: 0x702C, symBinAddr: 0xD2A0, symSize: 0x44 }
  - { offsetInCU: 0x1362, offset: 0x37398, size: 0x8, addend: 0x0, symName: __ZN5boost9iostreams6detail11execute_allINS1_22member_close_operationINS1_16linked_streambufIcNSt3__111char_traitsIcEEEEEES9_NS1_15reset_operationINS1_8optionalINS1_15concept_adapterINS0_17basic_file_sourceIcEEEEEEEEEENS1_14execute_traitsIT_NS_9result_ofIFSJ_vEE4typeEE11result_typeESJ_T0_T1_, symObjAddr: 0x6564, symBinAddr: 0xC7E0, symSize: 0x70 }
  - { offsetInCU: 0x167E, offset: 0x376B4, size: 0x8, addend: 0x0, symName: __ZN5boost9iostreams6detail11execute_allINS1_22member_close_operationINS1_16linked_streambufIcNSt3__111char_traitsIcEEEEEES9_EENS1_14execute_traitsIT_NS_9result_ofIFSB_vEE4typeEE11result_typeESB_T0_, symObjAddr: 0x65D4, symBinAddr: 0xC850, symSize: 0x6C }
  - { offsetInCU: 0x194D, offset: 0x37983, size: 0x8, addend: 0x0, symName: __ZN5boost9iostreams6detail9close_allINS0_17basic_file_sourceIcEEEEvRT_, symObjAddr: 0x709C, symBinAddr: 0xD310, symSize: 0x40 }
  - { offsetInCU: 0x21BF, offset: 0x381F5, size: 0x8, addend: 0x0, symName: __ZN5boost9iostreams5closeINS0_17basic_file_sourceIcEEEEvRT_j, symObjAddr: 0x7070, symBinAddr: 0xD2E4, symSize: 0x2C }
  - { offsetInCU: 0x3B8B, offset: 0x39BC1, size: 0x8, addend: 0x0, symName: __ZN5boost6detail13parse_inf_nanIcfEEbPKT_S4_RT0_, symObjAddr: 0x8624, symBinAddr: 0xE774, symSize: 0x198 }
  - { offsetInCU: 0x4B58, offset: 0x3AB8E, size: 0x8, addend: 0x0, symName: __ZN5boost16exception_detail20copy_boost_exceptionEPNS_9exceptionEPKS1_, symObjAddr: 0x6E38, symBinAddr: 0xD0AC, symSize: 0x120 }
  - { offsetInCU: 0x6C8B, offset: 0x3CCC1, size: 0x8, addend: 0x0, symName: __ZN5boost15throw_exceptionINS_16bad_lexical_castEEEvRKT_, symObjAddr: 0x8A50, symBinAddr: 0xEBA0, symSize: 0x50 }
  - { offsetInCU: 0x6CD6, offset: 0x3CD0C, size: 0x8, addend: 0x0, symName: __ZN5boost15throw_exceptionINSt3__18ios_base7failureEEEvRKT_, symObjAddr: 0x6944, symBinAddr: 0xCBC0, symSize: 0x50 }
  - { offsetInCU: 0x6D20, offset: 0x3CD56, size: 0x8, addend: 0x0, symName: __ZN5boost14checked_deleteINS_9iostreams10basic_fileIcE4implEEEvPT_, symObjAddr: 0x7C20, symBinAddr: 0xDD70, symSize: 0x1C }
  - { offsetInCU: 0x1B23A, offset: 0x51270, size: 0x8, addend: 0x0, symName: __ZNSt3__119__allocate_at_leastB7v160006INS_9allocatorIfEEEENS_19__allocation_resultINS_16allocator_traitsIT_E7pointerEEERS5_m, symObjAddr: 0x72FC, symBinAddr: 0xD44C, symSize: 0x34 }
  - { offsetInCU: 0x1B2E2, offset: 0x51318, size: 0x8, addend: 0x0, symName: __ZNSt3__16vectorINS_12basic_stringIcNS_11char_traitsIcEENS_9allocatorIcEEEENS4_IS6_EEED2B7v160006Ev, symObjAddr: 0x7330, symBinAddr: 0xD480, symSize: 0x38 }
  - { offsetInCU: 0x1C8B7, offset: 0x528ED, size: 0x8, addend: 0x0, symName: __ZNSt3__119__allocate_at_leastB7v160006INS_9allocatorINS_12basic_stringIcNS_11char_traitsIcEENS1_IcEEEEEEEENS_19__allocation_resultINS_16allocator_traitsIT_E7pointerEEERSA_m, symObjAddr: 0x7484, symBinAddr: 0xD5D4, symSize: 0x44 }
  - { offsetInCU: 0x1C95F, offset: 0x52995, size: 0x8, addend: 0x0, symName: __ZNSt3__142__uninitialized_allocator_move_if_noexceptB7v160006INS_9allocatorINS_12basic_stringIcNS_11char_traitsIcEENS1_IcEEEEEENS_16reverse_iteratorIPS6_EESA_SA_EET2_RT_T0_T1_SB_, symObjAddr: 0x74C8, symBinAddr: 0xD618, symSize: 0x9C }
  - { offsetInCU: 0x1C975, offset: 0x529AB, size: 0x8, addend: 0x0, symName: __ZNSt3__17getlineB7v160006IcNS_11char_traitsIcEENS_9allocatorIcEEEERNS_13basic_istreamIT_T0_EES9_RNS_12basic_stringIS6_S7_T1_EES6_, symObjAddr: 0x7D98, symBinAddr: 0xDEE8, symSize: 0x188 }
  - { offsetInCU: 0x1CC88, offset: 0x52CBE, size: 0x8, addend: 0x0, symName: __ZNSt3__119__allocate_at_leastB7v160006INS_9allocatorIiEEEENS_19__allocation_resultINS_16allocator_traitsIT_E7pointerEEERS5_m, symObjAddr: 0x91DC, symBinAddr: 0xEFF4, symSize: 0x34 }
  - { offsetInCU: 0x1CD30, offset: 0x52D66, size: 0x8, addend: 0x0, symName: __ZNSt3__16vectorIiNS_9allocatorIiEEEC2ERKS3_, symObjAddr: 0x9210, symBinAddr: 0xF028, symSize: 0x80 }
  - { offsetInCU: 0x1CFF9, offset: 0x5302F, size: 0x8, addend: 0x0, symName: __ZNSt3__119__allocate_at_leastB7v160006INS_9allocatorINS_6vectorIiNS1_IiEEEEEEEENS_19__allocation_resultINS_16allocator_traitsIT_E7pointerEEERS8_m, symObjAddr: 0x9358, symBinAddr: 0xF170, symSize: 0x44 }
  - { offsetInCU: 0x1D0A1, offset: 0x530D7, size: 0x8, addend: 0x0, symName: __ZNSt3__142__uninitialized_allocator_move_if_noexceptB7v160006INS_9allocatorINS_6vectorIiNS1_IiEEEEEENS_16reverse_iteratorIPS4_EES8_S8_EET2_RT_T0_T1_S9_, symObjAddr: 0x939C, symBinAddr: 0xF1B4, symSize: 0xA8 }
  - { offsetInCU: 0x1D339, offset: 0x5336F, size: 0x8, addend: 0x0, symName: __ZNSt3__142__uninitialized_allocator_move_if_noexceptB7v160006INS_9allocatorINS_12basic_stringIcNS_11char_traitsIcEENS1_IcEEEEEENS_16reverse_iteratorIPS6_EESA_SA_EET2_RT_T0_T1_SB_, symObjAddr: 0x74C8, symBinAddr: 0xD618, symSize: 0x9C }
  - { offsetInCU: 0x1DD38, offset: 0x53D6E, size: 0x8, addend: 0x0, symName: __ZNSt3__142__uninitialized_allocator_move_if_noexceptB7v160006INS_9allocatorINS_6vectorIiNS1_IiEEEEEENS_16reverse_iteratorIPS4_EES8_S8_EET2_RT_T0_T1_S9_, symObjAddr: 0x939C, symBinAddr: 0xF1B4, symSize: 0xA8 }
  - { offsetInCU: 0x1E660, offset: 0x54696, size: 0x8, addend: 0x0, symName: __ZSt28__throw_bad_array_new_lengthB7v160006v, symObjAddr: 0x7200, symBinAddr: 0xD350, symSize: 0x28 }
  - { offsetInCU: 0x1F82A, offset: 0x55860, size: 0x8, addend: 0x0, symName: __ZNSt3__16vectorINS_12basic_stringIcNS_11char_traitsIcEENS_9allocatorIcEEEENS4_IS6_EEE26__swap_out_circular_bufferERNS_14__split_bufferIS6_RS7_EE, symObjAddr: 0x73FC, symBinAddr: 0xD54C, symSize: 0x74 }
  - { offsetInCU: 0x1FCAB, offset: 0x55CE1, size: 0x8, addend: 0x0, symName: __ZNSt3__16vectorINS0_IiNS_9allocatorIiEEEENS1_IS3_EEE26__swap_out_circular_bufferERNS_14__split_bufferIS3_RS4_EE, symObjAddr: 0x92D0, symBinAddr: 0xF0E8, symSize: 0x74 }
  - { offsetInCU: 0x21C3C, offset: 0x57C72, size: 0x8, addend: 0x0, symName: __Z18SpecialConvolutionNSt3__16vectorIfNS_9allocatorIfEEEES3_, symObjAddr: 0x0, symBinAddr: 0x6288, symSize: 0x198 }
  - { offsetInCU: 0x21EC0, offset: 0x57EF6, size: 0x8, addend: 0x0, symName: __ZNSt3__16vectorIfNS_9allocatorIfEEEC2EmRKf, symObjAddr: 0x7228, symBinAddr: 0xD378, symSize: 0x80 }
  - { offsetInCU: 0x221DD, offset: 0x58213, size: 0x8, addend: 0x0, symName: __Z7cospulsfff, symObjAddr: 0x198, symBinAddr: 0x6420, symSize: 0x70 }
  - { offsetInCU: 0x22291, offset: 0x582C7, size: 0x8, addend: 0x0, symName: __Z12pitchCospulsffi, symObjAddr: 0x208, symBinAddr: 0x6490, symSize: 0xBC }
  - { offsetInCU: 0x228C8, offset: 0x588FE, size: 0x8, addend: 0x0, symName: __Z13logFreqMatrixiiPf, symObjAddr: 0x2C4, symBinAddr: 0x654C, symSize: 0x7F0 }
  - { offsetInCU: 0x24E44, offset: 0x5AE7A, size: 0x8, addend: 0x0, symName: __ZNKSt3__16vectorIfNS_9allocatorIfEEE20__throw_length_errorB7v160006Ev, symObjAddr: 0x72E8, symBinAddr: 0xD438, symSize: 0x14 }
  - { offsetInCU: 0x24E6D, offset: 0x5AEA3, size: 0x8, addend: 0x0, symName: __ZNSt3__119__allocate_at_leastB7v160006INS_9allocatorIfEEEENS_19__allocation_resultINS_16allocator_traitsIT_E7pointerEEERS5_m, symObjAddr: 0x72FC, symBinAddr: 0xD44C, symSize: 0x34 }
  - { offsetInCU: 0x24EED, offset: 0x5AF23, size: 0x8, addend: 0x0, symName: __Z16dictionaryMatrixPff, symObjAddr: 0xAB4, symBinAddr: 0x6D3C, symSize: 0x360 }
  - { offsetInCU: 0x2772E, offset: 0x5D764, size: 0x8, addend: 0x0, symName: __Z15chordDictionaryPNSt3__16vectorIfNS_9allocatorIfEEEEPNS0_INS0_IiNS1_IiEEEENS1_IS6_EEEEff, symObjAddr: 0xE14, symBinAddr: 0x709C, symSize: 0x1FD0 }
  - { offsetInCU: 0x321E4, offset: 0x6821A, size: 0x8, addend: 0x0, symName: __ZN5boost14char_separatorIcNSt3__111char_traitsIcEEEC2EPKcS6_NS_18empty_token_policyE, symObjAddr: 0x7664, symBinAddr: 0xD7B4, symSize: 0x94 }
  - { offsetInCU: 0x32783, offset: 0x687B9, size: 0x8, addend: 0x0, symName: __ZNSt3__114__split_bufferINS_12basic_stringIcNS_11char_traitsIcEENS_9allocatorIcEEEERNS4_IS6_EEED2Ev, symObjAddr: 0x75DC, symBinAddr: 0xD72C, symSize: 0x34 }
  - { offsetInCU: 0x3289F, offset: 0x688D5, size: 0x8, addend: 0x0, symName: __ZNSt3__112basic_stringIcNS_11char_traitsIcEENS_9allocatorIcEEEC2B7v160006ENS_24__uninitialized_size_tagEmRKS4_, symObjAddr: 0x76F8, symBinAddr: 0xD848, symSize: 0x74 }
  - { offsetInCU: 0x32A4E, offset: 0x68A84, size: 0x8, addend: 0x0, symName: __ZN5boost9iostreams6detail11stream_baseINS0_17basic_file_sourceIcEENSt3__111char_traitsIcEENS5_9allocatorIcEENS5_13basic_istreamIcS7_EEEC2Ev, symObjAddr: 0x776C, symBinAddr: 0xD8BC, symSize: 0xD8 }
  - { offsetInCU: 0x32A62, offset: 0x68A98, size: 0x8, addend: 0x0, symName: __ZNSt3__113basic_fstreamIcNS_11char_traitsIcEEE4openEPKcj, symObjAddr: 0x2DE4, symBinAddr: 0x906C, symSize: 0x48 }
  - { offsetInCU: 0x32AFE, offset: 0x68B34, size: 0x8, addend: 0x0, symName: __ZN5boost9iostreams6streamINS0_17basic_file_sourceIcEENSt3__111char_traitsIcEENS4_9allocatorIcEEEC1INS4_12basic_stringIcS6_S8_EEEERT_PNS_10disable_ifINS_7is_sameISD_S3_EEvE4typeE, symObjAddr: 0x2E94, symBinAddr: 0x911C, symSize: 0xFC }
  - { offsetInCU: 0x32E83, offset: 0x68EB9, size: 0x8, addend: 0x0, symName: __ZL16staticChordnamesv, symObjAddr: 0x2F90, symBinAddr: 0x9218, symSize: 0x25A0 }
  - { offsetInCU: 0x3F385, offset: 0x753BB, size: 0x8, addend: 0x0, symName: __ZNSt3__16vectorINS_12basic_stringIcNS_11char_traitsIcEENS_9allocatorIcEEEENS4_IS6_EEE5eraseENS_11__wrap_iterIPKS6_EESC_, symObjAddr: 0x5530, symBinAddr: 0xB7B8, symSize: 0x88 }
  - { offsetInCU: 0x3F6E2, offset: 0x75718, size: 0x8, addend: 0x0, symName: __ZN5boost9tokenizerINS_14char_separatorIcNSt3__111char_traitsIcEEEENS2_11__wrap_iterIPKcEENS2_12basic_stringIcS4_NS2_9allocatorIcEEEEEC2ISD_EERKT_RKS5_, symObjAddr: 0x7F20, symBinAddr: 0xE070, symSize: 0xA8 }
  - { offsetInCU: 0x3F951, offset: 0x75987, size: 0x8, addend: 0x0, symName: __ZNK5boost9tokenizerINS_14char_separatorIcNSt3__111char_traitsIcEEEENS2_11__wrap_iterIPKcEENS2_12basic_stringIcS4_NS2_9allocatorIcEEEEE5beginEv, symObjAddr: 0x55B8, symBinAddr: 0xB840, symSize: 0xB8 }
  - { offsetInCU: 0x3FDF7, offset: 0x75E2D, size: 0x8, addend: 0x0, symName: __ZNK5boost9tokenizerINS_14char_separatorIcNSt3__111char_traitsIcEEEENS2_11__wrap_iterIPKcEENS2_12basic_stringIcS4_NS2_9allocatorIcEEEEE3endEv, symObjAddr: 0x5670, symBinAddr: 0xB8F8, symSize: 0xBC }
  - { offsetInCU: 0x4029D, offset: 0x762D3, size: 0x8, addend: 0x0, symName: __ZN5boost6detail27lexical_ostream_limited_srcIcNSt3__111char_traitsIcEEE30float_types_converter_internalIfEEbRT_, symObjAddr: 0x85AC, symBinAddr: 0xE6FC, symSize: 0x78 }
  - { offsetInCU: 0x40363, offset: 0x76399, size: 0x8, addend: 0x0, symName: __ZN5boost14token_iteratorINS_14char_separatorIcNSt3__111char_traitsIcEEEENS2_11__wrap_iterIPKcEENS2_12basic_stringIcS4_NS2_9allocatorIcEEEEE9incrementEv, symObjAddr: 0x8570, symBinAddr: 0xE6C0, symSize: 0x3C }
  - { offsetInCU: 0x4039A, offset: 0x763D0, size: 0x8, addend: 0x0, symName: __ZN5boost6detail27lexical_ostream_limited_srcIcNSt3__111char_traitsIcEEE30float_types_converter_internalIfEEbRT_, symObjAddr: 0x85AC, symBinAddr: 0xE6FC, symSize: 0x78 }
  - { offsetInCU: 0x403A6, offset: 0x763DC, size: 0x8, addend: 0x0, symName: __ZNSt3__16vectorINS_12basic_stringIcNS_11char_traitsIcEENS_9allocatorIcEEEENS4_IS6_EEE9push_backB7v160006ERKS6_, symObjAddr: 0x577C, symBinAddr: 0xBA04, symSize: 0x118 }
  - { offsetInCU: 0x40758, offset: 0x7678E, size: 0x8, addend: 0x0, symName: __ZNSt3__119basic_ostringstreamIcNS_11char_traitsIcEENS_9allocatorIcEEEC1B7v160006Ev, symObjAddr: 0x58D4, symBinAddr: 0xBB5C, symSize: 0xEC }
  - { offsetInCU: 0x40825, offset: 0x7685B, size: 0x8, addend: 0x0, symName: __ZNSt3__16vectorINS0_IiNS_9allocatorIiEEEENS1_IS3_EEE9push_backB7v160006ERKS3_, symObjAddr: 0x59C0, symBinAddr: 0xBC48, symSize: 0x118 }
  - { offsetInCU: 0x40C56, offset: 0x76C8C, size: 0x8, addend: 0x0, symName: __ZNSt3__16vectorINS_12basic_stringIcNS_11char_traitsIcEENS_9allocatorIcEEEENS4_IS6_EEED2B7v160006Ev, symObjAddr: 0x7330, symBinAddr: 0xD480, symSize: 0x38 }
  - { offsetInCU: 0x40CE9, offset: 0x76D1F, size: 0x8, addend: 0x0, symName: __ZN5boost9iostreams13stream_bufferINS0_17basic_file_sourceIcEENSt3__111char_traitsIcEENS4_9allocatorIcEENS0_14input_seekableEED2Ev, symObjAddr: 0x5FCC, symBinAddr: 0xC248, symSize: 0x9C }
  - { offsetInCU: 0x41099, offset: 0x770CF, size: 0x8, addend: 0x0, symName: __ZNKSt3__16vectorIiNS_9allocatorIiEEE20__throw_length_errorB7v160006Ev, symObjAddr: 0x91C8, symBinAddr: 0xEFE0, symSize: 0x14 }
  - { offsetInCU: 0x410C2, offset: 0x770F8, size: 0x8, addend: 0x0, symName: __ZNSt3__119__allocate_at_leastB7v160006INS_9allocatorIiEEEENS_19__allocation_resultINS_16allocator_traitsIT_E7pointerEEERS5_m, symObjAddr: 0x91DC, symBinAddr: 0xEFF4, symSize: 0x34 }
  - { offsetInCU: 0x410CE, offset: 0x77104, size: 0x8, addend: 0x0, symName: __ZNKSt3__16vectorINS_12basic_stringIcNS_11char_traitsIcEENS_9allocatorIcEEEENS4_IS6_EEE20__throw_length_errorB7v160006Ev, symObjAddr: 0x7470, symBinAddr: 0xD5C0, symSize: 0x14 }
  - { offsetInCU: 0x410F7, offset: 0x7712D, size: 0x8, addend: 0x0, symName: __ZNSt3__119__allocate_at_leastB7v160006INS_9allocatorINS_12basic_stringIcNS_11char_traitsIcEENS1_IcEEEEEEEENS_19__allocation_resultINS_16allocator_traitsIT_E7pointerEEERSA_m, symObjAddr: 0x7484, symBinAddr: 0xD5D4, symSize: 0x44 }
  - { offsetInCU: 0x41103, offset: 0x77139, size: 0x8, addend: 0x0, symName: __ZN5boost14token_iteratorINS_14char_separatorIcNSt3__111char_traitsIcEEEENS2_11__wrap_iterIPKcEENS2_12basic_stringIcS4_NS2_9allocatorIcEEEEED1Ev, symObjAddr: 0x572C, symBinAddr: 0xB9B4, symSize: 0x50 }
  - { offsetInCU: 0x41525, offset: 0x7755B, size: 0x8, addend: 0x0, symName: __ZNSt3__113basic_fstreamIcNS_11char_traitsIcEEED1Ev, symObjAddr: 0x2E2C, symBinAddr: 0x90B4, symSize: 0x68 }
  - { offsetInCU: 0x41570, offset: 0x775A6, size: 0x8, addend: 0x0, symName: __ZNSt3__119basic_ostringstreamIcNS_11char_traitsIcEENS_9allocatorIcEEED1Ev, symObjAddr: 0x5AD8, symBinAddr: 0xBD60, symSize: 0x84 }
  - { offsetInCU: 0x4173B, offset: 0x77771, size: 0x8, addend: 0x0, symName: __ZN5boost9tokenizerINS_14char_separatorIcNSt3__111char_traitsIcEEEENS2_11__wrap_iterIPKcEENS2_12basic_stringIcS4_NS2_9allocatorIcEEEEED1Ev, symObjAddr: 0x5894, symBinAddr: 0xBB1C, symSize: 0x40 }
  - { offsetInCU: 0x41BC9, offset: 0x77BFF, size: 0x8, addend: 0x0, symName: __ZN5boost9iostreams6detail11stream_baseINS0_17basic_file_sourceIcEENSt3__111char_traitsIcEENS5_9allocatorIcEENS5_13basic_istreamIcS7_EEEC2Ev, symObjAddr: 0x776C, symBinAddr: 0xD8BC, symSize: 0xD8 }
  - { offsetInCU: 0x41D82, offset: 0x77DB8, size: 0x8, addend: 0x0, symName: __ZN5boost9iostreams10basic_fileIcEC2ERKNSt3__112basic_stringIcNS3_11char_traitsIcEENS3_9allocatorIcEEEEjj, symObjAddr: 0x7A3C, symBinAddr: 0xDB8C, symSize: 0x3C }
  - { offsetInCU: 0x41EFF, offset: 0x77F35, size: 0x8, addend: 0x0, symName: __ZN5boost9iostreams13stream_bufferINS0_17basic_file_sourceIcEENSt3__111char_traitsIcEENS4_9allocatorIcEENS0_14input_seekableEE4openERKS3_ll, symObjAddr: 0x7844, symBinAddr: 0xD994, symSize: 0x6C }
  - { offsetInCU: 0x42265, offset: 0x7829B, size: 0x8, addend: 0x0, symName: __ZN5boost6detail12shared_countD2Ev, symObjAddr: 0x6680, symBinAddr: 0xC8FC, symSize: 0x7C }
  - { offsetInCU: 0x42383, offset: 0x783B9, size: 0x8, addend: 0x0, symName: __ZNKSt3__111__move_loopINS_17_ClassicAlgPolicyEEclB7v160006IPNS_12basic_stringIcNS_11char_traitsIcEENS_9allocatorIcEEEESA_SA_EENS_4pairIT_T1_EESC_T0_SD_, symObjAddr: 0x7D28, symBinAddr: 0xDE78, symSize: 0x70 }
  - { offsetInCU: 0x425BB, offset: 0x785F1, size: 0x8, addend: 0x0, symName: __ZN5boost14token_iteratorINS_14char_separatorIcNSt3__111char_traitsIcEEEENS2_11__wrap_iterIPKcEENS2_12basic_stringIcS4_NS2_9allocatorIcEEEEEC2ES5_S9_S9_, symObjAddr: 0x7FC8, symBinAddr: 0xE118, symSize: 0xAC }
  - { offsetInCU: 0x42922, offset: 0x78958, size: 0x8, addend: 0x0, symName: __ZN5boost14char_separatorIcNSt3__111char_traitsIcEEED1Ev, symObjAddr: 0x5B9C, symBinAddr: 0xBE24, symSize: 0x40 }
  - { offsetInCU: 0x430C1, offset: 0x790F7, size: 0x8, addend: 0x0, symName: __ZNSt3__16vectorIiNS_9allocatorIiEEEC2ERKS3_, symObjAddr: 0x9210, symBinAddr: 0xF028, symSize: 0x80 }
  - { offsetInCU: 0x43408, offset: 0x7943E, size: 0x8, addend: 0x0, symName: __ZNSt3__114__split_bufferINS_6vectorIiNS_9allocatorIiEEEERNS2_IS4_EEED2Ev, symObjAddr: 0x94BC, symBinAddr: 0xF2D4, symSize: 0x34 }
  - { offsetInCU: 0x43524, offset: 0x7955A, size: 0x8, addend: 0x0, symName: __ZNKSt3__16vectorINS0_IiNS_9allocatorIiEEEENS1_IS3_EEE20__throw_length_errorB7v160006Ev, symObjAddr: 0x9344, symBinAddr: 0xF15C, symSize: 0x14 }
  - { offsetInCU: 0x4354D, offset: 0x79583, size: 0x8, addend: 0x0, symName: __ZNSt3__119__allocate_at_leastB7v160006INS_9allocatorINS_6vectorIiNS1_IiEEEEEEEENS_19__allocation_resultINS_16allocator_traitsIT_E7pointerEEERS8_m, symObjAddr: 0x9358, symBinAddr: 0xF170, symSize: 0x44 }
  - { offsetInCU: 0x43559, offset: 0x7958F, size: 0x8, addend: 0x0, symName: __ZN5boost9iostreams6streamINS0_17basic_file_sourceIcEENSt3__111char_traitsIcEENS4_9allocatorIcEEED1Ev, symObjAddr: 0x5B5C, symBinAddr: 0xBDE4, symSize: 0x40 }
  - { offsetInCU: 0x43616, offset: 0x7964C, size: 0x8, addend: 0x0, symName: __ZThn16_NSt3__113basic_fstreamIcNS_11char_traitsIcEEED1Ev, symObjAddr: 0x5BE8, symBinAddr: 0xBE64, symSize: 0x5C }
  - { offsetInCU: 0x43676, offset: 0x796AC, size: 0x8, addend: 0x0, symName: __ZTv0_n24_NSt3__113basic_fstreamIcNS_11char_traitsIcEEED1Ev, symObjAddr: 0x5C44, symBinAddr: 0xBEC0, symSize: 0x68 }
  - { offsetInCU: 0x436D4, offset: 0x7970A, size: 0x8, addend: 0x0, symName: __ZNSt3__113basic_fstreamIcNS_11char_traitsIcEEED0Ev, symObjAddr: 0x5CAC, symBinAddr: 0xBF28, symSize: 0x68 }
  - { offsetInCU: 0x43759, offset: 0x7978F, size: 0x8, addend: 0x0, symName: __ZThn16_NSt3__113basic_fstreamIcNS_11char_traitsIcEEED0Ev, symObjAddr: 0x5D14, symBinAddr: 0xBF90, symSize: 0x64 }
  - { offsetInCU: 0x437D9, offset: 0x7980F, size: 0x8, addend: 0x0, symName: __ZTv0_n24_NSt3__113basic_fstreamIcNS_11char_traitsIcEEED0Ev, symObjAddr: 0x5D78, symBinAddr: 0xBFF4, symSize: 0x70 }
  - { offsetInCU: 0x43855, offset: 0x7988B, size: 0x8, addend: 0x0, symName: __ZTv0_n24_N5boost9iostreams6streamINS0_17basic_file_sourceIcEENSt3__111char_traitsIcEENS4_9allocatorIcEEED1Ev, symObjAddr: 0x5DE8, symBinAddr: 0xC064, symSize: 0x44 }
  - { offsetInCU: 0x4392D, offset: 0x79963, size: 0x8, addend: 0x0, symName: __ZN5boost9iostreams6detail11stream_baseINS0_17basic_file_sourceIcEENSt3__111char_traitsIcEENS5_9allocatorIcEENS5_13basic_istreamIcS7_EEED1Ev, symObjAddr: 0x5E2C, symBinAddr: 0xC0A8, symSize: 0x40 }
  - { offsetInCU: 0x439DE, offset: 0x79A14, size: 0x8, addend: 0x0, symName: __ZN5boost9iostreams6detail11stream_baseINS0_17basic_file_sourceIcEENSt3__111char_traitsIcEENS5_9allocatorIcEENS5_13basic_istreamIcS7_EEED0Ev, symObjAddr: 0x5E6C, symBinAddr: 0xC0E8, symSize: 0x40 }
  - { offsetInCU: 0x43A91, offset: 0x79AC7, size: 0x8, addend: 0x0, symName: __ZTv0_n24_N5boost9iostreams6detail11stream_baseINS0_17basic_file_sourceIcEENSt3__111char_traitsIcEENS5_9allocatorIcEENS5_13basic_istreamIcS7_EEED1Ev, symObjAddr: 0x5EAC, symBinAddr: 0xC128, symSize: 0x44 }
  - { offsetInCU: 0x43B5D, offset: 0x79B93, size: 0x8, addend: 0x0, symName: __ZTv0_n24_N5boost9iostreams6detail11stream_baseINS0_17basic_file_sourceIcEENSt3__111char_traitsIcEENS5_9allocatorIcEENS5_13basic_istreamIcS7_EEED0Ev, symObjAddr: 0x5EF0, symBinAddr: 0xC16C, symSize: 0x4C }
  - { offsetInCU: 0x43C2B, offset: 0x79C61, size: 0x8, addend: 0x0, symName: __ZN5boost9iostreams6streamINS0_17basic_file_sourceIcEENSt3__111char_traitsIcEENS4_9allocatorIcEEED0Ev, symObjAddr: 0x5F3C, symBinAddr: 0xC1B8, symSize: 0x40 }
  - { offsetInCU: 0x43D22, offset: 0x79D58, size: 0x8, addend: 0x0, symName: __ZTv0_n24_N5boost9iostreams6streamINS0_17basic_file_sourceIcEENSt3__111char_traitsIcEENS4_9allocatorIcEEED0Ev, symObjAddr: 0x5F7C, symBinAddr: 0xC1F8, symSize: 0x4C }
  - { offsetInCU: 0x43E18, offset: 0x79E4E, size: 0x8, addend: 0x0, symName: __ZN5boost9iostreams13stream_bufferINS0_17basic_file_sourceIcEENSt3__111char_traitsIcEENS4_9allocatorIcEENS0_14input_seekableEED1Ev, symObjAddr: 0x5FC8, symBinAddr: 0xC244, symSize: 0x4 }
  - { offsetInCU: 0x43E3C, offset: 0x79E72, size: 0x8, addend: 0x0, symName: __ZN5boost9iostreams13stream_bufferINS0_17basic_file_sourceIcEENSt3__111char_traitsIcEENS4_9allocatorIcEENS0_14input_seekableEED1Ev, symObjAddr: 0x5FC8, symBinAddr: 0xC244, symSize: 0x4 }
  - { offsetInCU: 0x43FD3, offset: 0x7A009, size: 0x8, addend: 0x0, symName: __ZN5boost9iostreams13stream_bufferINS0_17basic_file_sourceIcEENSt3__111char_traitsIcEENS4_9allocatorIcEENS0_14input_seekableEED0Ev, symObjAddr: 0x6068, symBinAddr: 0xC2E4, symSize: 0x14 }
  - { offsetInCU: 0x4408B, offset: 0x7A0C1, size: 0x8, addend: 0x0, symName: __ZN5boost9iostreams6detail18indirect_streambufINS0_17basic_file_sourceIcEENSt3__111char_traitsIcEENS5_9allocatorIcEENS0_14input_seekableEE5imbueERKNS5_6localeE, symObjAddr: 0x607C, symBinAddr: 0xC2F8, symSize: 0x70 }
  - { offsetInCU: 0x44132, offset: 0x7A168, size: 0x8, addend: 0x0, symName: __ZN5boost9iostreams6detail18indirect_streambufINS0_17basic_file_sourceIcEENSt3__111char_traitsIcEENS5_9allocatorIcEENS0_14input_seekableEE7seekoffExNS5_8ios_base7seekdirEj, symObjAddr: 0x60EC, symBinAddr: 0xC368, symSize: 0x4 }
  - { offsetInCU: 0x4413E, offset: 0x7A174, size: 0x8, addend: 0x0, symName: __ZN5boost9iostreams6detail18indirect_streambufINS0_17basic_file_sourceIcEENSt3__111char_traitsIcEENS5_9allocatorIcEENS0_14input_seekableEE5imbueERKNS5_6localeE.cold.1, symObjAddr: 0x9548, symBinAddr: 0x2A1C0, symSize: 0x24 }
  - { offsetInCU: 0x44182, offset: 0x7A1B8, size: 0x8, addend: 0x0, symName: __ZN5boost9iostreams6detail18indirect_streambufINS0_17basic_file_sourceIcEENSt3__111char_traitsIcEENS5_9allocatorIcEENS0_14input_seekableEE7seekoffExNS5_8ios_base7seekdirEj, symObjAddr: 0x60EC, symBinAddr: 0xC368, symSize: 0x4 }
  - { offsetInCU: 0x441D6, offset: 0x7A20C, size: 0x8, addend: 0x0, symName: __ZN5boost9iostreams6detail18indirect_streambufINS0_17basic_file_sourceIcEENSt3__111char_traitsIcEENS5_9allocatorIcEENS0_14input_seekableEE7seekoffExNS5_8ios_base7seekdirEj, symObjAddr: 0x60EC, symBinAddr: 0xC368, symSize: 0x4 }
  - { offsetInCU: 0x4420A, offset: 0x7A240, size: 0x8, addend: 0x0, symName: __ZN5boost9iostreams6detail18indirect_streambufINS0_17basic_file_sourceIcEENSt3__111char_traitsIcEENS5_9allocatorIcEENS0_14input_seekableEE9seek_implElNS5_8ios_base7seekdirEj, symObjAddr: 0x67A0, symBinAddr: 0xCA1C, symSize: 0x1A4 }
  - { offsetInCU: 0x448E4, offset: 0x7A91A, size: 0x8, addend: 0x0, symName: __ZN5boost9iostreams6detail18indirect_streambufINS0_17basic_file_sourceIcEENSt3__111char_traitsIcEENS5_9allocatorIcEENS0_14input_seekableEE7seekposENS5_4fposI11__mbstate_tEEj, symObjAddr: 0x60F0, symBinAddr: 0xC36C, symSize: 0x10 }
  - { offsetInCU: 0x449A6, offset: 0x7A9DC, size: 0x8, addend: 0x0, symName: __ZN5boost9iostreams6detail18indirect_streambufINS0_17basic_file_sourceIcEENSt3__111char_traitsIcEENS5_9allocatorIcEENS0_14input_seekableEE4syncEv, symObjAddr: 0x6100, symBinAddr: 0xC37C, symSize: 0x74 }
  - { offsetInCU: 0x44A69, offset: 0x7AA9F, size: 0x8, addend: 0x0, symName: __ZN5boost9iostreams6detail18indirect_streambufINS0_17basic_file_sourceIcEENSt3__111char_traitsIcEENS5_9allocatorIcEENS0_14input_seekableEE9sync_implEv, symObjAddr: 0x6F58, symBinAddr: 0xD1CC, symSize: 0x84 }
  - { offsetInCU: 0x44CBA, offset: 0x7ACF0, size: 0x8, addend: 0x0, symName: __ZN5boost9iostreams6detail19device_wrapper_implINS0_5inputEE5writeINS0_17basic_file_sourceIcEENS1_16linked_streambufIcNSt3__111char_traitsIcEEEEEElRT_PT0_PKNS0_12char_type_ofISD_E4typeEl, symObjAddr: 0x6FDC, symBinAddr: 0xD250, symSize: 0x50 }
  - { offsetInCU: 0x44F3E, offset: 0x7AF74, size: 0x8, addend: 0x0, symName: __ZN5boost9iostreams6detail18indirect_streambufINS0_17basic_file_sourceIcEENSt3__111char_traitsIcEENS5_9allocatorIcEENS0_14input_seekableEE9underflowEv, symObjAddr: 0x6174, symBinAddr: 0xC3F0, symSize: 0x120 }
  - { offsetInCU: 0x4538B, offset: 0x7B3C1, size: 0x8, addend: 0x0, symName: __ZN5boost9iostreams6detail18indirect_streambufINS0_17basic_file_sourceIcEENSt3__111char_traitsIcEENS5_9allocatorIcEENS0_14input_seekableEE9pbackfailEi, symObjAddr: 0x6294, symBinAddr: 0xC510, symSize: 0x74 }
  - { offsetInCU: 0x45397, offset: 0x7B3CD, size: 0x8, addend: 0x0, symName: __ZNK5boost10shared_ptrINS_9iostreams10basic_fileIcE4implEEptEv, symObjAddr: 0x6994, symBinAddr: 0xCC10, symSize: 0x40 }
  - { offsetInCU: 0x453BE, offset: 0x7B3F4, size: 0x8, addend: 0x0, symName: __ZN5boost9iostreams6detail18indirect_streambufINS0_17basic_file_sourceIcEENSt3__111char_traitsIcEENS5_9allocatorIcEENS0_14input_seekableEE9underflowEv.cold.1, symObjAddr: 0x956C, symBinAddr: 0x2A1E4, symSize: 0x24 }
  - { offsetInCU: 0x45425, offset: 0x7B45B, size: 0x8, addend: 0x0, symName: __ZN5boost9iostreams6detail18indirect_streambufINS0_17basic_file_sourceIcEENSt3__111char_traitsIcEENS5_9allocatorIcEENS0_14input_seekableEE9pbackfailEi, symObjAddr: 0x6294, symBinAddr: 0xC510, symSize: 0x74 }
  - { offsetInCU: 0x4554C, offset: 0x7B582, size: 0x8, addend: 0x0, symName: __ZN5boost9iostreams6detail18indirect_streambufINS0_17basic_file_sourceIcEENSt3__111char_traitsIcEENS5_9allocatorIcEENS0_14input_seekableEE8overflowEi, symObjAddr: 0x6308, symBinAddr: 0xC584, symSize: 0xCC }
  - { offsetInCU: 0x456DD, offset: 0x7B713, size: 0x8, addend: 0x0, symName: __ZN5boost9iostreams6detail18indirect_streambufINS0_17basic_file_sourceIcEENSt3__111char_traitsIcEENS5_9allocatorIcEENS0_14input_seekableEE8set_nextEPNS1_16linked_streambufIcS7_EE, symObjAddr: 0x63D4, symBinAddr: 0xC650, symSize: 0x8 }
  - { offsetInCU: 0x456F3, offset: 0x7B729, size: 0x8, addend: 0x0, symName: __ZN5boost9iostreams6detail19device_wrapper_implINS0_5inputEE5writeINS0_17basic_file_sourceIcEENS1_16linked_streambufIcNSt3__111char_traitsIcEEEEEElRT_PT0_PKNS0_12char_type_ofISD_E4typeEl, symObjAddr: 0x6FDC, symBinAddr: 0xD250, symSize: 0x50 }
  - { offsetInCU: 0x45818, offset: 0x7B84E, size: 0x8, addend: 0x0, symName: __ZN5boost9iostreams6detail18indirect_streambufINS0_17basic_file_sourceIcEENSt3__111char_traitsIcEENS5_9allocatorIcEENS0_14input_seekableEE8overflowEi.cold.1, symObjAddr: 0x9590, symBinAddr: 0x2A208, symSize: 0x24 }
  - { offsetInCU: 0x4585D, offset: 0x7B893, size: 0x8, addend: 0x0, symName: __ZN5boost9iostreams6detail18indirect_streambufINS0_17basic_file_sourceIcEENSt3__111char_traitsIcEENS5_9allocatorIcEENS0_14input_seekableEE8set_nextEPNS1_16linked_streambufIcS7_EE, symObjAddr: 0x63D4, symBinAddr: 0xC650, symSize: 0x8 }
  - { offsetInCU: 0x45906, offset: 0x7B93C, size: 0x8, addend: 0x0, symName: __ZN5boost9iostreams6detail18indirect_streambufINS0_17basic_file_sourceIcEENSt3__111char_traitsIcEENS5_9allocatorIcEENS0_14input_seekableEE10close_implEj, symObjAddr: 0x63DC, symBinAddr: 0xC658, symSize: 0x30 }
  - { offsetInCU: 0x45A01, offset: 0x7BA37, size: 0x8, addend: 0x0, symName: __ZNK5boost9iostreams6detail18indirect_streambufINS0_17basic_file_sourceIcEENSt3__111char_traitsIcEENS5_9allocatorIcEENS0_14input_seekableEE10auto_closeEv, symObjAddr: 0x640C, symBinAddr: 0xC688, symSize: 0xC }
  - { offsetInCU: 0x45A0D, offset: 0x7BA43, size: 0x8, addend: 0x0, symName: __ZN5boost9iostreams6detail18indirect_streambufINS0_17basic_file_sourceIcEENSt3__111char_traitsIcEENS5_9allocatorIcEENS0_14input_seekableEE10close_implEj.cold.1, symObjAddr: 0x95B4, symBinAddr: 0x2A22C, symSize: 0x24 }
  - { offsetInCU: 0x45A52, offset: 0x7BA88, size: 0x8, addend: 0x0, symName: __ZNK5boost9iostreams6detail18indirect_streambufINS0_17basic_file_sourceIcEENSt3__111char_traitsIcEENS5_9allocatorIcEENS0_14input_seekableEE10auto_closeEv, symObjAddr: 0x640C, symBinAddr: 0xC688, symSize: 0xC }
  - { offsetInCU: 0x45A7A, offset: 0x7BAB0, size: 0x8, addend: 0x0, symName: __ZN5boost9iostreams6detail18indirect_streambufINS0_17basic_file_sourceIcEENSt3__111char_traitsIcEENS5_9allocatorIcEENS0_14input_seekableEE14set_auto_closeEb, symObjAddr: 0x6418, symBinAddr: 0xC694, symSize: 0x20 }
  - { offsetInCU: 0x45AB3, offset: 0x7BAE9, size: 0x8, addend: 0x0, symName: __ZN5boost9iostreams6detail18indirect_streambufINS0_17basic_file_sourceIcEENSt3__111char_traitsIcEENS5_9allocatorIcEENS0_14input_seekableEE11strict_syncEv, symObjAddr: 0x6438, symBinAddr: 0xC6B4, symSize: 0x80 }
  - { offsetInCU: 0x45B78, offset: 0x7BBAE, size: 0x8, addend: 0x0, symName: __ZNK5boost9iostreams6detail18indirect_streambufINS0_17basic_file_sourceIcEENSt3__111char_traitsIcEENS5_9allocatorIcEENS0_14input_seekableEE14component_typeEv, symObjAddr: 0x64B8, symBinAddr: 0xC734, symSize: 0xC }
  - { offsetInCU: 0x45BB5, offset: 0x7BBEB, size: 0x8, addend: 0x0, symName: __ZN5boost9iostreams6detail18indirect_streambufINS0_17basic_file_sourceIcEENSt3__111char_traitsIcEENS5_9allocatorIcEENS0_14input_seekableEE14component_implEv, symObjAddr: 0x64C4, symBinAddr: 0xC740, symSize: 0x20 }
  - { offsetInCU: 0x45C26, offset: 0x7BC5C, size: 0x8, addend: 0x0, symName: __ZN5boost9iostreams6detail18indirect_streambufINS0_17basic_file_sourceIcEENSt3__111char_traitsIcEENS5_9allocatorIcEENS0_14input_seekableEE13init_get_areaEv, symObjAddr: 0x64E4, symBinAddr: 0xC760, symSize: 0x10 }
  - { offsetInCU: 0x45C32, offset: 0x7BC68, size: 0x8, addend: 0x0, symName: __ZN5boost9iostreams6detail18indirect_streambufINS0_17basic_file_sourceIcEENSt3__111char_traitsIcEENS5_9allocatorIcEENS0_14input_seekableEE14component_implEv.cold.1, symObjAddr: 0x95D8, symBinAddr: 0x2A250, symSize: 0x24 }
  - { offsetInCU: 0x45CA2, offset: 0x7BCD8, size: 0x8, addend: 0x0, symName: __ZN5boost9iostreams6detail18indirect_streambufINS0_17basic_file_sourceIcEENSt3__111char_traitsIcEENS5_9allocatorIcEENS0_14input_seekableEE13init_get_areaEv, symObjAddr: 0x64E4, symBinAddr: 0xC760, symSize: 0x10 }
  - { offsetInCU: 0x45CCB, offset: 0x7BD01, size: 0x8, addend: 0x0, symName: __ZN5boost9iostreams6detail18indirect_streambufINS0_17basic_file_sourceIcEENSt3__111char_traitsIcEENS5_9allocatorIcEENS0_14input_seekableEE13init_get_areaEv, symObjAddr: 0x64E4, symBinAddr: 0xC760, symSize: 0x10 }
  - { offsetInCU: 0x45D38, offset: 0x7BD6E, size: 0x8, addend: 0x0, symName: __ZN5boost9iostreams6detail18indirect_streambufINS0_17basic_file_sourceIcEENSt3__111char_traitsIcEENS5_9allocatorIcEENS0_14input_seekableEE13init_put_areaEv, symObjAddr: 0x64F4, symBinAddr: 0xC770, symSize: 0x28 }
  - { offsetInCU: 0x45E3C, offset: 0x7BE72, size: 0x8, addend: 0x0, symName: __ZN5boost9iostreams6detail16linked_streambufIcNSt3__111char_traitsIcEEE5closeEj, symObjAddr: 0x6640, symBinAddr: 0xC8BC, symSize: 0x40 }
  - { offsetInCU: 0x45EAC, offset: 0x7BEE2, size: 0x8, addend: 0x0, symName: __ZN5boost9iostreams6detail18indirect_streambufINS0_17basic_file_sourceIcEENSt3__111char_traitsIcEENS5_9allocatorIcEENS0_14input_seekableEED1Ev, symObjAddr: 0x66FC, symBinAddr: 0xC978, symSize: 0x50 }
  - { offsetInCU: 0x461F1, offset: 0x7C227, size: 0x8, addend: 0x0, symName: __ZN5boost9iostreams6detail18indirect_streambufINS0_17basic_file_sourceIcEENSt3__111char_traitsIcEENS5_9allocatorIcEENS0_14input_seekableEED0Ev, symObjAddr: 0x674C, symBinAddr: 0xC9C8, symSize: 0x54 }
  - { offsetInCU: 0x4677D, offset: 0x7C7B3, size: 0x8, addend: 0x0, symName: __ZN5boost9iostreams6detail18indirect_streambufINS0_17basic_file_sourceIcEENSt3__111char_traitsIcEENS5_9allocatorIcEENS0_14input_seekableEE9seek_implElNS5_8ios_base7seekdirEj.cold.1, symObjAddr: 0x95FC, symBinAddr: 0x2A274, symSize: 0x24 }
  - { offsetInCU: 0x467C2, offset: 0x7C7F8, size: 0x8, addend: 0x0, symName: __ZN5boost9iostreams6detail18indirect_streambufINS0_17basic_file_sourceIcEENSt3__111char_traitsIcEENS5_9allocatorIcEENS0_14input_seekableEE9seek_implElNS5_8ios_base7seekdirEj.cold.2, symObjAddr: 0x9620, symBinAddr: 0x2A298, symSize: 0x24 }
  - { offsetInCU: 0x46807, offset: 0x7C83D, size: 0x8, addend: 0x0, symName: __ZN5boost10wrapexceptINSt3__18ios_base7failureEEC1ERKS3_, symObjAddr: 0x69D4, symBinAddr: 0xCC50, symSize: 0x78 }
  - { offsetInCU: 0x469FE, offset: 0x7CA34, size: 0x8, addend: 0x0, symName: __ZN5boost10wrapexceptINSt3__18ios_base7failureEED1Ev, symObjAddr: 0x6A4C, symBinAddr: 0xCCC8, symSize: 0x40 }
  - { offsetInCU: 0x46A8C, offset: 0x7CAC2, size: 0x8, addend: 0x0, symName: __ZN5boost16exception_detail12refcount_ptrINS0_20error_info_containerEED2Ev, symObjAddr: 0x6D20, symBinAddr: 0xCF94, symSize: 0x40 }
  - { offsetInCU: 0x46C10, offset: 0x7CC46, size: 0x8, addend: 0x0, symName: __ZNK5boost10wrapexceptINSt3__18ios_base7failureEE5cloneEv, symObjAddr: 0x6A8C, symBinAddr: 0xCD08, symSize: 0x104 }
  - { offsetInCU: 0x46E18, offset: 0x7CE4E, size: 0x8, addend: 0x0, symName: __ZNK5boost10wrapexceptINSt3__18ios_base7failureEE7rethrowEv, symObjAddr: 0x6B90, symBinAddr: 0xCE0C, symSize: 0x50 }
  - { offsetInCU: 0x46E55, offset: 0x7CE8B, size: 0x8, addend: 0x0, symName: __ZN5boost10wrapexceptINSt3__18ios_base7failureEEC1ERKS4_, symObjAddr: 0x6D60, symBinAddr: 0xCFD4, symSize: 0xD8 }
  - { offsetInCU: 0x46FD1, offset: 0x7D007, size: 0x8, addend: 0x0, symName: __ZN5boost10wrapexceptINSt3__18ios_base7failureEED0Ev, symObjAddr: 0x6BE0, symBinAddr: 0xCE5C, symSize: 0x40 }
  - { offsetInCU: 0x4707D, offset: 0x7D0B3, size: 0x8, addend: 0x0, symName: __ZThn8_N5boost10wrapexceptINSt3__18ios_base7failureEED1Ev, symObjAddr: 0x6C20, symBinAddr: 0xCE9C, symSize: 0x38 }
  - { offsetInCU: 0x4713C, offset: 0x7D172, size: 0x8, addend: 0x0, symName: __ZThn8_N5boost10wrapexceptINSt3__18ios_base7failureEED0Ev, symObjAddr: 0x6C58, symBinAddr: 0xCED4, symSize: 0x44 }
  - { offsetInCU: 0x471FB, offset: 0x7D231, size: 0x8, addend: 0x0, symName: __ZThn40_N5boost10wrapexceptINSt3__18ios_base7failureEED1Ev, symObjAddr: 0x6C9C, symBinAddr: 0xCF18, symSize: 0x38 }
  - { offsetInCU: 0x4729E, offset: 0x7D2D4, size: 0x8, addend: 0x0, symName: __ZThn40_N5boost10wrapexceptINSt3__18ios_base7failureEED0Ev, symObjAddr: 0x6CD4, symBinAddr: 0xCF50, symSize: 0x44 }
  - { offsetInCU: 0x4735D, offset: 0x7D393, size: 0x8, addend: 0x0, symName: __ZN5boost16exception_detail10clone_baseD1Ev, symObjAddr: 0x6D18, symBinAddr: 0x2A1B8, symSize: 0x4 }
  - { offsetInCU: 0x47386, offset: 0x7D3BC, size: 0x8, addend: 0x0, symName: __ZN5boost16exception_detail10clone_baseD0Ev, symObjAddr: 0x6D1C, symBinAddr: 0x2A1BC, symSize: 0x4 }
  - { offsetInCU: 0x47484, offset: 0x7D4BA, size: 0x8, addend: 0x0, symName: __ZN5boost9iostreams6detail18indirect_streambufINS0_17basic_file_sourceIcEENSt3__111char_traitsIcEENS5_9allocatorIcEENS0_14input_seekableEE9sync_implEv.cold.1, symObjAddr: 0x9644, symBinAddr: 0x2A2BC, symSize: 0x24 }
  - { offsetInCU: 0x47855, offset: 0x7D88B, size: 0x8, addend: 0x0, symName: __ZNSt3__16vectorIfNS_9allocatorIfEEE11__vallocateB7v160006Em, symObjAddr: 0x72A8, symBinAddr: 0xD3F8, symSize: 0x40 }
  - { offsetInCU: 0x478D5, offset: 0x7D90B, size: 0x8, addend: 0x0, symName: __ZNKSt3__16vectorIfNS_9allocatorIfEEE20__throw_length_errorB7v160006Ev, symObjAddr: 0x72E8, symBinAddr: 0xD438, symSize: 0x14 }
  - { offsetInCU: 0x47974, offset: 0x7D9AA, size: 0x8, addend: 0x0, symName: __ZNSt3__16vectorINS_12basic_stringIcNS_11char_traitsIcEENS_9allocatorIcEEEENS4_IS6_EEE16__destroy_vectorclB7v160006Ev, symObjAddr: 0x7368, symBinAddr: 0xD4B8, symSize: 0x40 }
  - { offsetInCU: 0x47ABF, offset: 0x7DAF5, size: 0x8, addend: 0x0, symName: __ZNSt3__16vectorINS_12basic_stringIcNS_11char_traitsIcEENS_9allocatorIcEEEENS4_IS6_EEE7__clearB7v160006Ev, symObjAddr: 0x73A8, symBinAddr: 0xD4F8, symSize: 0x54 }
  - { offsetInCU: 0x47D5B, offset: 0x7DD91, size: 0x8, addend: 0x0, symName: __ZNSt3__128__exception_guard_exceptionsINS_29_AllocatorDestroyRangeReverseINS_9allocatorINS_12basic_stringIcNS_11char_traitsIcEENS2_IcEEEEEENS_16reverse_iteratorIPS7_EEEEED2B7v160006Ev, symObjAddr: 0x7564, symBinAddr: 0xD6B4, symSize: 0x34 }
  - { offsetInCU: 0x47D9C, offset: 0x7DDD2, size: 0x8, addend: 0x0, symName: __ZNKSt3__129_AllocatorDestroyRangeReverseINS_9allocatorINS_12basic_stringIcNS_11char_traitsIcEENS1_IcEEEEEENS_16reverse_iteratorIPS6_EEEclB7v160006Ev, symObjAddr: 0x7598, symBinAddr: 0xD6E8, symSize: 0x44 }
  - { offsetInCU: 0x47FBC, offset: 0x7DFF2, size: 0x8, addend: 0x0, symName: __ZNSt3__114__split_bufferINS_12basic_stringIcNS_11char_traitsIcEENS_9allocatorIcEEEERNS4_IS6_EEE17__destruct_at_endB7v160006EPS6_, symObjAddr: 0x7610, symBinAddr: 0xD760, symSize: 0x54 }
  - { offsetInCU: 0x4836E, offset: 0x7E3A4, size: 0x8, addend: 0x0, symName: __ZN5boost9iostreams13stream_bufferINS0_17basic_file_sourceIcEENSt3__111char_traitsIcEENS4_9allocatorIcEENS0_14input_seekableEE9open_implERKS3_ll, symObjAddr: 0x78B0, symBinAddr: 0xDA00, symSize: 0x68 }
  - { offsetInCU: 0x48485, offset: 0x7E4BB, size: 0x8, addend: 0x0, symName: __ZN5boost9iostreams6detail18indirect_streambufINS0_17basic_file_sourceIcEENSt3__111char_traitsIcEENS5_9allocatorIcEENS0_14input_seekableEE4openERKS4_ll, symObjAddr: 0x7918, symBinAddr: 0xDA68, symSize: 0x124 }
  - { offsetInCU: 0x48ED4, offset: 0x7EF0A, size: 0x8, addend: 0x0, symName: __ZN5boost9iostreams10basic_fileIcE4openERKNSt3__112basic_stringIcNS3_11char_traitsIcEENS3_9allocatorIcEEEEjj, symObjAddr: 0x7A78, symBinAddr: 0xDBC8, symSize: 0x6C }
  - { offsetInCU: 0x48FBF, offset: 0x7EFF5, size: 0x8, addend: 0x0, symName: __ZN5boost9iostreams10basic_fileIcE4implC2ERKNSt3__112basic_stringIcNS4_11char_traitsIcEENS4_9allocatorIcEEEEj, symObjAddr: 0x7CC8, symBinAddr: 0xDE18, symSize: 0x60 }
  - { offsetInCU: 0x49085, offset: 0x7F0BB, size: 0x8, addend: 0x0, symName: __ZN5boost10shared_ptrINS_9iostreams10basic_fileIcE4implEE5resetIS4_EEvPT_, symObjAddr: 0x7AE4, symBinAddr: 0xDC34, symSize: 0x5C }
  - { offsetInCU: 0x491C7, offset: 0x7F1FD, size: 0x8, addend: 0x0, symName: __ZN5boost10shared_ptrINS_9iostreams10basic_fileIcE4implEEC2IS4_EEPT_, symObjAddr: 0x7B40, symBinAddr: 0xDC90, symSize: 0x68 }
  - { offsetInCU: 0x49237, offset: 0x7F26D, size: 0x8, addend: 0x0, symName: __ZN5boost10shared_ptrINS_9iostreams10basic_fileIcE4implEEC2IS4_EEPT_, symObjAddr: 0x7B40, symBinAddr: 0xDC90, symSize: 0x68 }
  - { offsetInCU: 0x493B8, offset: 0x7F3EE, size: 0x8, addend: 0x0, symName: __ZN5boost10shared_ptrINS_9iostreams10basic_fileIcE4implEE5resetIS4_EEvPT_.cold.1, symObjAddr: 0x9668, symBinAddr: 0x2A2E0, symSize: 0x28 }
  - { offsetInCU: 0x49430, offset: 0x7F466, size: 0x8, addend: 0x0, symName: __ZN5boost6detail12shared_countC2INS_9iostreams10basic_fileIcE4implEEEPT_, symObjAddr: 0x7BA8, symBinAddr: 0xDCF8, symSize: 0x78 }
  - { offsetInCU: 0x49590, offset: 0x7F5C6, size: 0x8, addend: 0x0, symName: __ZN5boost9iostreams10basic_fileIcE4implD2Ev, symObjAddr: 0x7C94, symBinAddr: 0xDDE4, symSize: 0x34 }
  - { offsetInCU: 0x495D9, offset: 0x7F60F, size: 0x8, addend: 0x0, symName: __ZN5boost6detail17sp_counted_impl_pINS_9iostreams10basic_fileIcE4implEED1Ev, symObjAddr: 0x7C3C, symBinAddr: 0xDD8C, symSize: 0x4 }
  - { offsetInCU: 0x49604, offset: 0x7F63A, size: 0x8, addend: 0x0, symName: __ZN5boost6detail17sp_counted_impl_pINS_9iostreams10basic_fileIcE4implEED0Ev, symObjAddr: 0x7C40, symBinAddr: 0xDD90, symSize: 0x4 }
  - { offsetInCU: 0x4962F, offset: 0x7F665, size: 0x8, addend: 0x0, symName: __ZN5boost6detail17sp_counted_impl_pINS_9iostreams10basic_fileIcE4implEE7disposeEv, symObjAddr: 0x7C44, symBinAddr: 0xDD94, symSize: 0x24 }
  - { offsetInCU: 0x496A0, offset: 0x7F6D6, size: 0x8, addend: 0x0, symName: __ZN5boost6detail15sp_counted_base7destroyEv, symObjAddr: 0x7C68, symBinAddr: 0xDDB8, symSize: 0x14 }
  - { offsetInCU: 0x496D1, offset: 0x7F707, size: 0x8, addend: 0x0, symName: __ZN5boost6detail17sp_counted_impl_pINS_9iostreams10basic_fileIcE4implEE11get_deleterERKSt9type_info, symObjAddr: 0x7C7C, symBinAddr: 0xDDCC, symSize: 0x8 }
  - { offsetInCU: 0x49702, offset: 0x7F738, size: 0x8, addend: 0x0, symName: __ZN5boost6detail17sp_counted_impl_pINS_9iostreams10basic_fileIcE4implEE17get_local_deleterERKSt9type_info, symObjAddr: 0x7C84, symBinAddr: 0xDDD4, symSize: 0x8 }
  - { offsetInCU: 0x49733, offset: 0x7F769, size: 0x8, addend: 0x0, symName: __ZN5boost6detail17sp_counted_impl_pINS_9iostreams10basic_fileIcE4implEE19get_untyped_deleterEv, symObjAddr: 0x7C8C, symBinAddr: 0xDDDC, symSize: 0x8 }
  - { offsetInCU: 0x49877, offset: 0x7F8AD, size: 0x8, addend: 0x0, symName: __ZN5boost14token_iteratorINS_14char_separatorIcNSt3__111char_traitsIcEEEENS2_11__wrap_iterIPKcEENS2_12basic_stringIcS4_NS2_9allocatorIcEEEEE10initializeEv, symObjAddr: 0x8074, symBinAddr: 0xE1C4, symSize: 0x4C }
  - { offsetInCU: 0x498FD, offset: 0x7F933, size: 0x8, addend: 0x0, symName: __ZN5boost14char_separatorIcNSt3__111char_traitsIcEEEclINS1_11__wrap_iterIPKcEENS1_12basic_stringIcS3_NS1_9allocatorIcEEEEEEbRT_SE_RT0_, symObjAddr: 0x80C0, symBinAddr: 0xE210, symSize: 0x1C8 }
  - { offsetInCU: 0x49BC6, offset: 0x7FBFC, size: 0x8, addend: 0x0, symName: __ZNK5boost14char_separatorIcNSt3__111char_traitsIcEEE7is_keptEc, symObjAddr: 0x8304, symBinAddr: 0xE454, symSize: 0x78 }
  - { offsetInCU: 0x49D11, offset: 0x7FD47, size: 0x8, addend: 0x0, symName: __ZNK5boost14char_separatorIcNSt3__111char_traitsIcEEE10is_droppedEc, symObjAddr: 0x8288, symBinAddr: 0xE3D8, symSize: 0x7C }
  - { offsetInCU: 0x49E35, offset: 0x7FE6B, size: 0x8, addend: 0x0, symName: __ZNSt3__112basic_stringIcNS_11char_traitsIcEENS_9allocatorIcEEE6assignINS_11__wrap_iterIPKcEEEENS_9enable_ifIXsr27__is_cpp17_forward_iteratorIT_EE5valueERS5_E4typeESC_SC_, symObjAddr: 0x837C, symBinAddr: 0xE4CC, symSize: 0x15C }
  - { offsetInCU: 0x4A656, offset: 0x8068C, size: 0x8, addend: 0x0, symName: __ZNSt3__112basic_stringIcNS_11char_traitsIcEENS_9allocatorIcEEEC2B7v160006INS_11__wrap_iterIPKcEEvEET_SB_RKS4_, symObjAddr: 0x84D8, symBinAddr: 0xE628, symSize: 0x98 }
  - { offsetInCU: 0x4A8CE, offset: 0x80904, size: 0x8, addend: 0x0, symName: __ZN5boost14token_iteratorINS_14char_separatorIcNSt3__111char_traitsIcEEEENS2_11__wrap_iterIPKcEENS2_12basic_stringIcS4_NS2_9allocatorIcEEEEE9incrementEv, symObjAddr: 0x8570, symBinAddr: 0xE6C0, symSize: 0x3C }
  - { offsetInCU: 0x4A954, offset: 0x8098A, size: 0x8, addend: 0x0, symName: __ZN5boost14token_iteratorINS_14char_separatorIcNSt3__111char_traitsIcEEEENS2_11__wrap_iterIPKcEENS2_12basic_stringIcS4_NS2_9allocatorIcEEEEE9incrementEv.cold.1, symObjAddr: 0x9690, symBinAddr: 0x2A308, symSize: 0x28 }
  - { offsetInCU: 0x4A96C, offset: 0x809A2, size: 0x8, addend: 0x0, symName: __ZN5boost6detail27lexical_ostream_limited_srcIcNSt3__111char_traitsIcEEE20shr_using_base_classIfEEbRT_, symObjAddr: 0x87BC, symBinAddr: 0xE90C, symSize: 0x174 }
  - { offsetInCU: 0x4AE16, offset: 0x80E4C, size: 0x8, addend: 0x0, symName: __ZN5boost6detail16basic_pointerbufIcNSt3__115basic_streambufIcNS2_11char_traitsIcEEEEE6setbufEPcl, symObjAddr: 0x8930, symBinAddr: 0xEA80, symSize: 0x10 }
  - { offsetInCU: 0x4AE7D, offset: 0x80EB3, size: 0x8, addend: 0x0, symName: __ZN5boost6detail17basic_unlockedbufINSt3__115basic_streambufIcNS2_11char_traitsIcEEEEcED1Ev, symObjAddr: 0x8940, symBinAddr: 0xEA90, symSize: 0x4 }
  - { offsetInCU: 0x4AEA0, offset: 0x80ED6, size: 0x8, addend: 0x0, symName: __ZN5boost6detail17basic_unlockedbufINSt3__115basic_streambufIcNS2_11char_traitsIcEEEEcED1Ev, symObjAddr: 0x8940, symBinAddr: 0xEA90, symSize: 0x4 }
  - { offsetInCU: 0x4AEBD, offset: 0x80EF3, size: 0x8, addend: 0x0, symName: __ZN5boost6detail17basic_unlockedbufINSt3__115basic_streambufIcNS2_11char_traitsIcEEEEcED1Ev, symObjAddr: 0x8940, symBinAddr: 0xEA90, symSize: 0x4 }
  - { offsetInCU: 0x4AEDA, offset: 0x80F10, size: 0x8, addend: 0x0, symName: __ZN5boost6detail17basic_unlockedbufINSt3__115basic_streambufIcNS2_11char_traitsIcEEEEcED0Ev, symObjAddr: 0x8944, symBinAddr: 0xEA94, symSize: 0x14 }
  - { offsetInCU: 0x4AF5F, offset: 0x80F95, size: 0x8, addend: 0x0, symName: __ZN5boost6detail16basic_pointerbufIcNSt3__115basic_streambufIcNS2_11char_traitsIcEEEEE7seekoffExNS2_8ios_base7seekdirEj, symObjAddr: 0x8958, symBinAddr: 0xEAA8, symSize: 0xB0 }
  - { offsetInCU: 0x4B07A, offset: 0x810B0, size: 0x8, addend: 0x0, symName: __ZN5boost6detail16basic_pointerbufIcNSt3__115basic_streambufIcNS2_11char_traitsIcEEEEE7seekposENS2_4fposI11__mbstate_tEEj, symObjAddr: 0x8A08, symBinAddr: 0xEB58, symSize: 0x48 }
  - { offsetInCU: 0x4B165, offset: 0x8119B, size: 0x8, addend: 0x0, symName: __ZN5boost10wrapexceptINS_16bad_lexical_castEEC1ERKS1_, symObjAddr: 0x8AA4, symBinAddr: 0xEBF4, symSize: 0x50 }
  - { offsetInCU: 0x4B19E, offset: 0x811D4, size: 0x8, addend: 0x0, symName: __ZN5boost10wrapexceptINS_16bad_lexical_castEEC1ERKS1_, symObjAddr: 0x8AA4, symBinAddr: 0xEBF4, symSize: 0x50 }
  - { offsetInCU: 0x4B212, offset: 0x81248, size: 0x8, addend: 0x0, symName: __ZN5boost16bad_lexical_castD1Ev, symObjAddr: 0x8AA0, symBinAddr: 0xEBF0, symSize: 0x4 }
  - { offsetInCU: 0x4B235, offset: 0x8126B, size: 0x8, addend: 0x0, symName: __ZN5boost16bad_lexical_castD1Ev, symObjAddr: 0x8AA0, symBinAddr: 0xEBF0, symSize: 0x4 }
  - { offsetInCU: 0x4B2B9, offset: 0x812EF, size: 0x8, addend: 0x0, symName: __ZN5boost10wrapexceptINS_16bad_lexical_castEED1Ev, symObjAddr: 0x8AF4, symBinAddr: 0xEC44, symSize: 0x40 }
  - { offsetInCU: 0x4B3EB, offset: 0x81421, size: 0x8, addend: 0x0, symName: __ZNK5boost10wrapexceptINS_16bad_lexical_castEE5cloneEv, symObjAddr: 0x8B34, symBinAddr: 0xEC84, symSize: 0xF8 }
  - { offsetInCU: 0x4B5EA, offset: 0x81620, size: 0x8, addend: 0x0, symName: __ZNK5boost10wrapexceptINS_16bad_lexical_castEE7rethrowEv, symObjAddr: 0x8C2C, symBinAddr: 0xED7C, symSize: 0x50 }
  - { offsetInCU: 0x4B627, offset: 0x8165D, size: 0x8, addend: 0x0, symName: __ZN5boost10wrapexceptINS_16bad_lexical_castEEC1ERKS2_, symObjAddr: 0x8DD4, symBinAddr: 0xEF24, symSize: 0xBC }
  - { offsetInCU: 0x4B79A, offset: 0x817D0, size: 0x8, addend: 0x0, symName: __ZN5boost10wrapexceptINS_16bad_lexical_castEED0Ev, symObjAddr: 0x8C7C, symBinAddr: 0xEDCC, symSize: 0x40 }
  - { offsetInCU: 0x4B864, offset: 0x8189A, size: 0x8, addend: 0x0, symName: __ZThn8_N5boost10wrapexceptINS_16bad_lexical_castEED1Ev, symObjAddr: 0x8CBC, symBinAddr: 0xEE0C, symSize: 0x38 }
  - { offsetInCU: 0x4B943, offset: 0x81979, size: 0x8, addend: 0x0, symName: __ZThn8_N5boost10wrapexceptINS_16bad_lexical_castEED0Ev, symObjAddr: 0x8CF4, symBinAddr: 0xEE44, symSize: 0x44 }
  - { offsetInCU: 0x4BA20, offset: 0x81A56, size: 0x8, addend: 0x0, symName: __ZNK5boost16bad_lexical_cast4whatEv, symObjAddr: 0x8D38, symBinAddr: 0xEE88, symSize: 0xC }
  - { offsetInCU: 0x4BA47, offset: 0x81A7D, size: 0x8, addend: 0x0, symName: __ZThn32_N5boost10wrapexceptINS_16bad_lexical_castEED1Ev, symObjAddr: 0x8D44, symBinAddr: 0xEE94, symSize: 0x38 }
  - { offsetInCU: 0x4BAFF, offset: 0x81B35, size: 0x8, addend: 0x0, symName: __ZThn32_N5boost10wrapexceptINS_16bad_lexical_castEED0Ev, symObjAddr: 0x8D7C, symBinAddr: 0xEECC, symSize: 0x44 }
  - { offsetInCU: 0x4BBD3, offset: 0x81C09, size: 0x8, addend: 0x0, symName: __ZN5boost16bad_lexical_castD0Ev, symObjAddr: 0x8DC0, symBinAddr: 0xEF10, symSize: 0x14 }
  - { offsetInCU: 0x4BF03, offset: 0x81F39, size: 0x8, addend: 0x0, symName: __ZNKSt3__16vectorIiNS_9allocatorIiEEE20__throw_length_errorB7v160006Ev, symObjAddr: 0x91C8, symBinAddr: 0xEFE0, symSize: 0x14 }
  - { offsetInCU: 0x4C13D, offset: 0x82173, size: 0x8, addend: 0x0, symName: __ZNSt3__16vectorIiNS_9allocatorIiEEE11__vallocateB7v160006Em, symObjAddr: 0x9290, symBinAddr: 0xF0A8, symSize: 0x40 }
  - { offsetInCU: 0x4C1BD, offset: 0x821F3, size: 0x8, addend: 0x0, symName: __ZNSt3__16vectorINS0_IiNS_9allocatorIiEEEENS1_IS3_EEE26__swap_out_circular_bufferERNS_14__split_bufferIS3_RS4_EE, symObjAddr: 0x92D0, symBinAddr: 0xF0E8, symSize: 0x74 }
  - { offsetInCU: 0x4C34E, offset: 0x82384, size: 0x8, addend: 0x0, symName: __ZNSt3__128__exception_guard_exceptionsINS_29_AllocatorDestroyRangeReverseINS_9allocatorINS_6vectorIiNS2_IiEEEEEENS_16reverse_iteratorIPS5_EEEEED2B7v160006Ev, symObjAddr: 0x9444, symBinAddr: 0xF25C, symSize: 0x34 }
  - { offsetInCU: 0x4C38F, offset: 0x823C5, size: 0x8, addend: 0x0, symName: __ZNKSt3__129_AllocatorDestroyRangeReverseINS_9allocatorINS_6vectorIiNS1_IiEEEEEENS_16reverse_iteratorIPS4_EEEclB7v160006Ev, symObjAddr: 0x9478, symBinAddr: 0xF290, symSize: 0x44 }
  - { offsetInCU: 0x4C692, offset: 0x826C8, size: 0x8, addend: 0x0, symName: __ZNSt3__114__split_bufferINS_6vectorIiNS_9allocatorIiEEEERNS2_IS4_EEE17__destruct_at_endB7v160006EPS4_, symObjAddr: 0x94F0, symBinAddr: 0xF308, symSize: 0x58 }
  - { offsetInCU: 0x4C880, offset: 0x828B6, size: 0x8, addend: 0x0, symName: _OUTLINED_FUNCTION_0, symObjAddr: 0x96B8, symBinAddr: 0xF360, symSize: 0x8 }
  - { offsetInCU: 0x7A, offset: 0x8299A, size: 0x8, addend: 0x0, symName: __ZL12treblewindow, symObjAddr: 0x757C, symBinAddr: 0x2B760, symSize: 0x0 }
  - { offsetInCU: 0xAD, offset: 0x829CD, size: 0x8, addend: 0x0, symName: __ZL10basswindow, symObjAddr: 0x76D8, symBinAddr: 0x2B8BC, symSize: 0x0 }
  - { offsetInCU: 0xD3, offset: 0x829F3, size: 0x8, addend: 0x0, symName: __ZNSt3__1L19piecewise_constructE, symObjAddr: 0x7828, symBinAddr: 0x2BA0C, symSize: 0x0 }
  - { offsetInCU: 0x17076, offset: 0x99996, size: 0x8, addend: 0x0, symName: __ZNSt3__128__exception_guard_exceptionsINS_6vectorINS_12basic_stringIcNS_11char_traitsIcEENS_9allocatorIcEEEENS5_IS7_EEE16__destroy_vectorEED2B7v160006Ev, symObjAddr: 0x4364, symBinAddr: 0x133C8, symSize: 0x34 }
  - { offsetInCU: 0x170B7, offset: 0x999D7, size: 0x8, addend: 0x0, symName: __ZNSt3__119__allocate_at_leastB7v160006INS_9allocatorIN11_VampPlugin4Vamp10PluginBase19ParameterDescriptorEEEEENS_19__allocation_resultINS_16allocator_traitsIT_E7pointerEEERS9_m, symObjAddr: 0x4A4C, symBinAddr: 0x13778, symSize: 0x48 }
  - { offsetInCU: 0x17160, offset: 0x99A80, size: 0x8, addend: 0x0, symName: __ZNSt3__142__uninitialized_allocator_move_if_noexceptB7v160006INS_9allocatorIN11_VampPlugin4Vamp10PluginBase19ParameterDescriptorEEENS_16reverse_iteratorIPS5_EES9_S9_EET2_RT_T0_T1_SA_, symObjAddr: 0x4A94, symBinAddr: 0x137C0, symSize: 0x120 }
  - { offsetInCU: 0x171A1, offset: 0x99AC1, size: 0x8, addend: 0x0, symName: __ZNSt3__119__allocate_at_leastB7v160006INS_9allocatorIN11_VampPlugin4Vamp6Plugin16OutputDescriptorEEEEENS_19__allocation_resultINS_16allocator_traitsIT_E7pointerEEERS9_m, symObjAddr: 0x515C, symBinAddr: 0x13C78, symSize: 0x48 }
  - { offsetInCU: 0x1724A, offset: 0x99B6A, size: 0x8, addend: 0x0, symName: __ZNSt3__142__uninitialized_allocator_move_if_noexceptB7v160006INS_9allocatorIN11_VampPlugin4Vamp6Plugin16OutputDescriptorEEENS_16reverse_iteratorIPS5_EES9_S9_EET2_RT_T0_T1_SA_, symObjAddr: 0x51A4, symBinAddr: 0x13CC0, symSize: 0x128 }
  - { offsetInCU: 0x17E6C, offset: 0x9A78C, size: 0x8, addend: 0x0, symName: __ZNSt3__119__allocate_at_leastB7v160006INS_9allocatorIN11_VampPlugin4Vamp8RealTimeEEEEENS_19__allocation_resultINS_16allocator_traitsIT_E7pointerEEERS8_m, symObjAddr: 0x55D8, symBinAddr: 0x140F4, symSize: 0x34 }
  - { offsetInCU: 0x17F15, offset: 0x9A835, size: 0x8, addend: 0x0, symName: __ZNSt3__16vectorIN11_VampPlugin4Vamp6Plugin7FeatureENS_9allocatorIS4_EEE21__push_back_slow_pathIRKS4_EEvOT_, symObjAddr: 0x560C, symBinAddr: 0x14128, symSize: 0x118 }
  - { offsetInCU: 0x17F94, offset: 0x9A8B4, size: 0x8, addend: 0x0, symName: __ZNSt3__128__exception_guard_exceptionsINS_6vectorINS1_IiNS_9allocatorIiEEEENS2_IS4_EEE16__destroy_vectorEED2B7v160006Ev, symObjAddr: 0x41F4, symBinAddr: 0x132B0, symSize: 0x34 }
  - { offsetInCU: 0x18013, offset: 0x9A933, size: 0x8, addend: 0x0, symName: __ZNSt3__16vectorIfNS_9allocatorIfEEE6assignIPfLi0EEEvT_S6_, symObjAddr: 0x5BC8, symBinAddr: 0x1461C, symSize: 0x108 }
  - { offsetInCU: 0x18027, offset: 0x9A947, size: 0x8, addend: 0x0, symName: __ZNSt3__119__allocate_at_leastB7v160006INS_9allocatorIdEEEENS_19__allocation_resultINS_16allocator_traitsIT_E7pointerEEERS5_m, symObjAddr: 0x5CE4, symBinAddr: 0x14738, symSize: 0x34 }
  - { offsetInCU: 0x180D0, offset: 0x9A9F0, size: 0x8, addend: 0x0, symName: __ZNSt3__16vectorINS0_IdNS_9allocatorIdEEEENS1_IS3_EEE26__swap_out_circular_bufferERNS_14__split_bufferIS3_RS4_EE, symObjAddr: 0x5D18, symBinAddr: 0x1476C, symSize: 0x74 }
  - { offsetInCU: 0x18BAA, offset: 0x9B4CA, size: 0x8, addend: 0x0, symName: __ZNSt3__119__allocate_at_leastB7v160006INS_9allocatorINS_6vectorIdNS1_IdEEEEEEEENS_19__allocation_resultINS_16allocator_traitsIT_E7pointerEEERS8_m, symObjAddr: 0x5DA0, symBinAddr: 0x147F4, symSize: 0x44 }
  - { offsetInCU: 0x18C53, offset: 0x9B573, size: 0x8, addend: 0x0, symName: __ZNSt3__142__uninitialized_allocator_move_if_noexceptB7v160006INS_9allocatorINS_6vectorIdNS1_IdEEEEEENS_16reverse_iteratorIPS4_EES8_S8_EET2_RT_T0_T1_S9_, symObjAddr: 0x5DE4, symBinAddr: 0x14838, symSize: 0xA8 }
  - { offsetInCU: 0x1937E, offset: 0x9BC9E, size: 0x8, addend: 0x0, symName: __ZNSt3__130__uninitialized_allocator_copyB7v160006INS_9allocatorINS_12basic_stringIcNS_11char_traitsIcEENS1_IcEEEEEEPS6_S8_S8_EET2_RT_T0_T1_S9_, symObjAddr: 0x48A4, symBinAddr: 0x135D0, symSize: 0xA0 }
  - { offsetInCU: 0x19646, offset: 0x9BF66, size: 0x8, addend: 0x0, symName: __ZNSt3__142__uninitialized_allocator_move_if_noexceptB7v160006INS_9allocatorIN11_VampPlugin4Vamp10PluginBase19ParameterDescriptorEEENS_16reverse_iteratorIPS5_EES9_S9_EET2_RT_T0_T1_SA_, symObjAddr: 0x4A94, symBinAddr: 0x137C0, symSize: 0x120 }
  - { offsetInCU: 0x19D20, offset: 0x9C640, size: 0x8, addend: 0x0, symName: __ZNSt3__142__uninitialized_allocator_move_if_noexceptB7v160006INS_9allocatorIN11_VampPlugin4Vamp6Plugin16OutputDescriptorEEENS_16reverse_iteratorIPS5_EES9_S9_EET2_RT_T0_T1_SA_, symObjAddr: 0x51A4, symBinAddr: 0x13CC0, symSize: 0x128 }
  - { offsetInCU: 0x1A23C, offset: 0x9CB5C, size: 0x8, addend: 0x0, symName: __ZNSt3__119__allocate_at_leastB7v160006INS_9allocatorIN11_VampPlugin4Vamp6Plugin7FeatureEEEEENS_19__allocation_resultINS_16allocator_traitsIT_E7pointerEEERS9_m, symObjAddr: 0x582C, symBinAddr: 0x14348, symSize: 0x48 }
  - { offsetInCU: 0x1A2E5, offset: 0x9CC05, size: 0x8, addend: 0x0, symName: __ZNSt3__142__uninitialized_allocator_move_if_noexceptB7v160006INS_9allocatorIN11_VampPlugin4Vamp6Plugin7FeatureEEENS_16reverse_iteratorIPS5_EES9_S9_EET2_RT_T0_T1_SA_, symObjAddr: 0x5874, symBinAddr: 0x14390, symSize: 0xC8 }
  - { offsetInCU: 0x1A344, offset: 0x9CC64, size: 0x8, addend: 0x0, symName: __ZNSt3__142__uninitialized_allocator_move_if_noexceptB7v160006INS_9allocatorIN11_VampPlugin4Vamp6Plugin7FeatureEEENS_16reverse_iteratorIPS5_EES9_S9_EET2_RT_T0_T1_SA_, symObjAddr: 0x5874, symBinAddr: 0x14390, symSize: 0xC8 }
  - { offsetInCU: 0x1A999, offset: 0x9D2B9, size: 0x8, addend: 0x0, symName: __ZNSt3__142__uninitialized_allocator_move_if_noexceptB7v160006INS_9allocatorINS_6vectorIdNS1_IdEEEEEENS_16reverse_iteratorIPS4_EES8_S8_EET2_RT_T0_T1_S9_, symObjAddr: 0x5DE4, symBinAddr: 0x14838, symSize: 0xA8 }
  - { offsetInCU: 0x1ACA7, offset: 0x9D5C7, size: 0x8, addend: 0x0, symName: __ZNSt3__130__uninitialized_allocator_copyB7v160006INS_9allocatorINS_6vectorIdNS1_IdEEEEEEPS4_S6_S6_EET2_RT_T0_T1_S7_, symObjAddr: 0x61D4, symBinAddr: 0x14C28, symSize: 0xA0 }
  - { offsetInCU: 0x1AF6B, offset: 0x9D88B, size: 0x8, addend: 0x0, symName: __ZNSt3__127__tree_balance_after_insertB7v160006IPNS_16__tree_node_baseIPvEEEEvT_S5_, symObjAddr: 0x6464, symBinAddr: 0x14EB8, symSize: 0x198 }
  - { offsetInCU: 0x1D07E, offset: 0x9F99E, size: 0x8, addend: 0x0, symName: __ZNSt3__16vectorIN11_VampPlugin4Vamp10PluginBase19ParameterDescriptorENS_9allocatorIS4_EEE26__swap_out_circular_bufferERNS_14__split_bufferIS4_RS6_EE, symObjAddr: 0x49C4, symBinAddr: 0x136F0, symSize: 0x74 }
  - { offsetInCU: 0x1D2BE, offset: 0x9FBDE, size: 0x8, addend: 0x0, symName: __ZNSt3__16vectorIN11_VampPlugin4Vamp6Plugin16OutputDescriptorENS_9allocatorIS4_EEE26__swap_out_circular_bufferERNS_14__split_bufferIS4_RS6_EE, symObjAddr: 0x50D4, symBinAddr: 0x13BF0, symSize: 0x74 }
  - { offsetInCU: 0x1D608, offset: 0x9FF28, size: 0x8, addend: 0x0, symName: __ZNSt3__16vectorIN11_VampPlugin4Vamp6Plugin7FeatureENS_9allocatorIS4_EEE26__swap_out_circular_bufferERNS_14__split_bufferIS4_RS6_EE, symObjAddr: 0x57A4, symBinAddr: 0x142C0, symSize: 0x74 }
  - { offsetInCU: 0x1DAC7, offset: 0xA03E7, size: 0x8, addend: 0x0, symName: __ZNSt3__16vectorINS0_IdNS_9allocatorIdEEEENS1_IS3_EEE26__swap_out_circular_bufferERNS_14__split_bufferIS3_RS4_EE, symObjAddr: 0x5D18, symBinAddr: 0x1476C, symSize: 0x74 }
  - { offsetInCU: 0x201D7, offset: 0xA2AF7, size: 0x8, addend: 0x0, symName: __ZN8ChordinoC2Ef, symObjAddr: 0x0, symBinAddr: 0xF368, symSize: 0x7C }
  - { offsetInCU: 0x20458, offset: 0xA2D78, size: 0x8, addend: 0x0, symName: __ZNSt3__128__exception_guard_exceptionsINS_6vectorINS1_IiNS_9allocatorIiEEEENS2_IS4_EEE16__destroy_vectorEED2B7v160006Ev, symObjAddr: 0x41F4, symBinAddr: 0x132B0, symSize: 0x34 }
  - { offsetInCU: 0x20499, offset: 0xA2DB9, size: 0x8, addend: 0x0, symName: __ZNSt3__128__exception_guard_exceptionsINS_6vectorINS_12basic_stringIcNS_11char_traitsIcEENS_9allocatorIcEEEENS5_IS7_EEE16__destroy_vectorEED2B7v160006Ev, symObjAddr: 0x4364, symBinAddr: 0x133C8, symSize: 0x34 }
  - { offsetInCU: 0x204DA, offset: 0xA2DFA, size: 0x8, addend: 0x0, symName: __ZN8ChordinoC1Ef, symObjAddr: 0x7C, symBinAddr: 0xF3E4, symSize: 0x4 }
  - { offsetInCU: 0x20517, offset: 0xA2E37, size: 0x8, addend: 0x0, symName: __ZN8ChordinoC1Ef, symObjAddr: 0x7C, symBinAddr: 0xF3E4, symSize: 0x4 }
  - { offsetInCU: 0x2066A, offset: 0xA2F8A, size: 0x8, addend: 0x0, symName: __ZN8ChordinoD2Ev, symObjAddr: 0x80, symBinAddr: 0xF3E8, symSize: 0x4C }
  - { offsetInCU: 0x208A8, offset: 0xA31C8, size: 0x8, addend: 0x0, symName: __ZNSt3__16vectorINS0_IiNS_9allocatorIiEEEENS1_IS3_EEED2B7v160006Ev, symObjAddr: 0x4398, symBinAddr: 0x133FC, symSize: 0x38 }
  - { offsetInCU: 0x2093B, offset: 0xA325B, size: 0x8, addend: 0x0, symName: __ZN8ChordinoD1Ev, symObjAddr: 0xCC, symBinAddr: 0xF434, symSize: 0x4 }
  - { offsetInCU: 0x2095F, offset: 0xA327F, size: 0x8, addend: 0x0, symName: __ZN8ChordinoD1Ev, symObjAddr: 0xCC, symBinAddr: 0xF434, symSize: 0x4 }
  - { offsetInCU: 0x20994, offset: 0xA32B4, size: 0x8, addend: 0x0, symName: __ZN8ChordinoD0Ev, symObjAddr: 0xD0, symBinAddr: 0xF438, symSize: 0x14 }
  - { offsetInCU: 0x20A26, offset: 0xA3346, size: 0x8, addend: 0x0, symName: __ZNK8Chordino13getIdentifierEv, symObjAddr: 0xE4, symBinAddr: 0xF44C, symSize: 0x10 }
  - { offsetInCU: 0x20CAC, offset: 0xA35CC, size: 0x8, addend: 0x0, symName: __ZNK8Chordino7getNameEv, symObjAddr: 0xF4, symBinAddr: 0xF45C, symSize: 0x10 }
  - { offsetInCU: 0x20D10, offset: 0xA3630, size: 0x8, addend: 0x0, symName: __ZNK8Chordino14getDescriptionEv, symObjAddr: 0x104, symBinAddr: 0xF46C, symSize: 0x10 }
  - { offsetInCU: 0x2137F, offset: 0xA3C9F, size: 0x8, addend: 0x0, symName: __ZNK8Chordino23getParameterDescriptorsEv, symObjAddr: 0x114, symBinAddr: 0xF47C, symSize: 0xB5C }
  - { offsetInCU: 0x25DE1, offset: 0xA8701, size: 0x8, addend: 0x0, symName: __ZNSt3__16vectorIN11_VampPlugin4Vamp10PluginBase19ParameterDescriptorENS_9allocatorIS4_EEE9push_backB7v160006ERKS4_, symObjAddr: 0xC70, symBinAddr: 0xFFD8, symSize: 0x130 }
  - { offsetInCU: 0x262E9, offset: 0xA8C09, size: 0x8, addend: 0x0, symName: __ZN11_VampPlugin4Vamp10PluginBase19ParameterDescriptorD1Ev, symObjAddr: 0xDA0, symBinAddr: 0x10108, symSize: 0x68 }
  - { offsetInCU: 0x26830, offset: 0xA9150, size: 0x8, addend: 0x0, symName: __ZNSt3__16vectorIN11_VampPlugin4Vamp10PluginBase19ParameterDescriptorENS_9allocatorIS4_EEED2B7v160006Ev, symObjAddr: 0x3EF8, symBinAddr: 0x13188, symSize: 0x38 }
  - { offsetInCU: 0x26C1E, offset: 0xA953E, size: 0x8, addend: 0x0, symName: __ZN11_VampPlugin4Vamp10PluginBase19ParameterDescriptorC2ERKS2_, symObjAddr: 0x4708, symBinAddr: 0x13434, symSize: 0xE8 }
  - { offsetInCU: 0x27128, offset: 0xA9A48, size: 0x8, addend: 0x0, symName: __ZNSt3__114__split_bufferIN11_VampPlugin4Vamp10PluginBase19ParameterDescriptorERNS_9allocatorIS4_EEED2Ev, symObjAddr: 0x4C38, symBinAddr: 0x13964, symSize: 0x30 }
  - { offsetInCU: 0x27225, offset: 0xA9B45, size: 0x8, addend: 0x0, symName: __ZNKSt3__16vectorIN11_VampPlugin4Vamp10PluginBase19ParameterDescriptorENS_9allocatorIS4_EEE20__throw_length_errorB7v160006Ev, symObjAddr: 0x4A38, symBinAddr: 0x13764, symSize: 0x14 }
  - { offsetInCU: 0x2724F, offset: 0xA9B6F, size: 0x8, addend: 0x0, symName: __ZNSt3__119__allocate_at_leastB7v160006INS_9allocatorIN11_VampPlugin4Vamp10PluginBase19ParameterDescriptorEEEEENS_19__allocation_resultINS_16allocator_traitsIT_E7pointerEEERS9_m, symObjAddr: 0x4A4C, symBinAddr: 0x13778, symSize: 0x48 }
  - { offsetInCU: 0x27319, offset: 0xA9C39, size: 0x8, addend: 0x0, symName: __ZNK8Chordino20getOutputDescriptorsEv, symObjAddr: 0xE08, symBinAddr: 0x10170, symSize: 0x4B4 }
  - { offsetInCU: 0x28FE2, offset: 0xAB902, size: 0x8, addend: 0x0, symName: __ZNSt3__16vectorIN11_VampPlugin4Vamp6Plugin16OutputDescriptorENS_9allocatorIS4_EEE9push_backB7v160006ERKS4_, symObjAddr: 0x12BC, symBinAddr: 0x10624, symSize: 0x130 }
  - { offsetInCU: 0x29413, offset: 0xABD33, size: 0x8, addend: 0x0, symName: __ZN11_VampPlugin4Vamp6Plugin16OutputDescriptorD1Ev, symObjAddr: 0x13EC, symBinAddr: 0x10754, symSize: 0x68 }
  - { offsetInCU: 0x2995A, offset: 0xAC27A, size: 0x8, addend: 0x0, symName: __ZNSt3__16vectorIN11_VampPlugin4Vamp6Plugin16OutputDescriptorENS_9allocatorIS4_EEED2B7v160006Ev, symObjAddr: 0x4EBC, symBinAddr: 0x139D8, symSize: 0x38 }
  - { offsetInCU: 0x29D48, offset: 0xAC668, size: 0x8, addend: 0x0, symName: __ZN11_VampPlugin4Vamp6Plugin16OutputDescriptorC2ERKS2_, symObjAddr: 0x4FE4, symBinAddr: 0x13B00, symSize: 0xF0 }
  - { offsetInCU: 0x2A252, offset: 0xACB72, size: 0x8, addend: 0x0, symName: __ZNSt3__114__split_bufferIN11_VampPlugin4Vamp6Plugin16OutputDescriptorERNS_9allocatorIS4_EEED2Ev, symObjAddr: 0x5350, symBinAddr: 0x13E6C, symSize: 0x30 }
  - { offsetInCU: 0x2A34F, offset: 0xACC6F, size: 0x8, addend: 0x0, symName: __ZNKSt3__16vectorIN11_VampPlugin4Vamp6Plugin16OutputDescriptorENS_9allocatorIS4_EEE20__throw_length_errorB7v160006Ev, symObjAddr: 0x5148, symBinAddr: 0x13C64, symSize: 0x14 }
  - { offsetInCU: 0x2A379, offset: 0xACC99, size: 0x8, addend: 0x0, symName: __ZNSt3__119__allocate_at_leastB7v160006INS_9allocatorIN11_VampPlugin4Vamp6Plugin16OutputDescriptorEEEEENS_19__allocation_resultINS_16allocator_traitsIT_E7pointerEEERS9_m, symObjAddr: 0x515C, symBinAddr: 0x13C78, symSize: 0x48 }
  - { offsetInCU: 0x2A3D7, offset: 0xACCF7, size: 0x8, addend: 0x0, symName: __ZN8Chordino10initialiseEmmm, symObjAddr: 0x1454, symBinAddr: 0x107BC, symSize: 0x80 }
  - { offsetInCU: 0x2A518, offset: 0xACE38, size: 0x8, addend: 0x0, symName: __ZNSt3__16vectorINS_12basic_stringIcNS_11char_traitsIcEENS_9allocatorIcEEEENS4_IS6_EEE13__vdeallocateEv, symObjAddr: 0x53C4, symBinAddr: 0x13EE0, symSize: 0x38 }
  - { offsetInCU: 0x2A641, offset: 0xACF61, size: 0x8, addend: 0x0, symName: __ZN8Chordino5resetEv, symObjAddr: 0x14D4, symBinAddr: 0x1083C, symSize: 0x4 }
  - { offsetInCU: 0x2A808, offset: 0xAD128, size: 0x8, addend: 0x0, symName: __ZN8Chordino7processEPKPKfN11_VampPlugin4Vamp8RealTimeE, symObjAddr: 0x14D8, symBinAddr: 0x10840, symSize: 0x44 }
  - { offsetInCU: 0x2C4C7, offset: 0xAEDE7, size: 0x8, addend: 0x0, symName: __ZN8Chordino20getRemainingFeaturesEv, symObjAddr: 0x151C, symBinAddr: 0x10884, symSize: 0x25A0 }
  - { offsetInCU: 0x38542, offset: 0xBAE62, size: 0x8, addend: 0x0, symName: __ZNSt3__16vectorIfNS_9allocatorIfEEEC2ERKS3_, symObjAddr: 0x5544, symBinAddr: 0x14060, symSize: 0x80 }
  - { offsetInCU: 0x388A4, offset: 0xBB1C4, size: 0x8, addend: 0x0, symName: __ZNSt3__19allocatorIN11_VampPlugin4Vamp6Plugin7FeatureEE9constructB7v160006IS4_JRKS4_EEEvPT_DpOT0_, symObjAddr: 0x5724, symBinAddr: 0x14240, symSize: 0x80 }
  - { offsetInCU: 0x38B72, offset: 0xBB492, size: 0x8, addend: 0x0, symName: __ZNSt3__16vectorIN11_VampPlugin4Vamp6Plugin7FeatureENS_9allocatorIS4_EEE21__push_back_slow_pathIRKS4_EEvOT_, symObjAddr: 0x560C, symBinAddr: 0x14128, symSize: 0x118 }
  - { offsetInCU: 0x39060, offset: 0xBB980, size: 0x8, addend: 0x0, symName: __ZNSt3__16vectorIfNS_9allocatorIfEEE6insertINS_11__wrap_iterIPfEELi0EEES7_NS5_IPKfEET_SB_, symObjAddr: 0x3AFC, symBinAddr: 0x12E64, symSize: 0x1F4 }
  - { offsetInCU: 0x39B8E, offset: 0xBC4AE, size: 0x8, addend: 0x0, symName: __ZNSt3__16vectorINS0_IdNS_9allocatorIdEEEENS1_IS3_EEE9push_backB7v160006ERKS3_, symObjAddr: 0x3CF0, symBinAddr: 0x13058, symSize: 0x118 }
  - { offsetInCU: 0x39BB3, offset: 0xBC4D3, size: 0x8, addend: 0x0, symName: __ZNSt3__16vectorIfNS_9allocatorIfEEE6assignIPfLi0EEEvT_S6_, symObjAddr: 0x5BC8, symBinAddr: 0x1461C, symSize: 0x108 }
  - { offsetInCU: 0x3A205, offset: 0xBCB25, size: 0x8, addend: 0x0, symName: __ZNKSt3__16vectorIdNS_9allocatorIdEEE20__throw_length_errorB7v160006Ev, symObjAddr: 0x5CD0, symBinAddr: 0x14724, symSize: 0x14 }
  - { offsetInCU: 0x3A22A, offset: 0xBCB4A, size: 0x8, addend: 0x0, symName: __ZNSt3__16vectorINS0_IdNS_9allocatorIdEEEENS1_IS3_EEE9push_backB7v160006ERKS3_, symObjAddr: 0x3CF0, symBinAddr: 0x13058, symSize: 0x118 }
  - { offsetInCU: 0x3A65B, offset: 0xBCF7B, size: 0x8, addend: 0x0, symName: __ZNSt3__16vectorIdNS_9allocatorIdEEEC2EmRKd, symObjAddr: 0x5F90, symBinAddr: 0x149E4, symSize: 0x80 }
  - { offsetInCU: 0x3A95B, offset: 0xBD27B, size: 0x8, addend: 0x0, symName: __ZNSt3__16vectorIdNS_9allocatorIdEEEC2ERKS3_, symObjAddr: 0x6050, symBinAddr: 0x14AA4, symSize: 0x80 }
  - { offsetInCU: 0x3ACA2, offset: 0xBD5C2, size: 0x8, addend: 0x0, symName: __ZNSt3__16vectorINS0_IdNS_9allocatorIdEEEENS1_IS3_EEEC2ERKS5_, symObjAddr: 0x60D0, symBinAddr: 0x14B24, symSize: 0xB4 }
  - { offsetInCU: 0x3AF53, offset: 0xBD873, size: 0x8, addend: 0x0, symName: __ZNSt3__16vectorINS0_IdNS_9allocatorIdEEEENS1_IS3_EEED2B7v160006Ev, symObjAddr: 0x5A34, symBinAddr: 0x14550, symSize: 0x38 }
  - { offsetInCU: 0x3AFFD, offset: 0xBD91D, size: 0x8, addend: 0x0, symName: __ZNSt3__16__treeINS_12__value_typeIiNS_6vectorIN11_VampPlugin4Vamp6Plugin7FeatureENS_9allocatorIS6_EEEEEENS_19__map_value_compareIiSA_NS_4lessIiEELb1EEENS7_ISA_EEE25__emplace_unique_key_argsIiJRKNS_21piecewise_construct_tENS_5tupleIJRKiEEENSL_IJEEEEEENS_4pairINS_15__tree_iteratorISA_PNS_11__tree_nodeISA_PvEElEEbEERKT_DpOT0_, symObjAddr: 0x6328, symBinAddr: 0x14D7C, symSize: 0xE8 }
  - { offsetInCU: 0x3B4A2, offset: 0xBDDC2, size: 0x8, addend: 0x0, symName: __ZNSt3__19allocatorIN11_VampPlugin4Vamp6Plugin7FeatureEE7destroyB7v160006EPS4_, symObjAddr: 0x5500, symBinAddr: 0x1401C, symSize: 0x44 }
  - { offsetInCU: 0x3B79B, offset: 0xBE0BB, size: 0x8, addend: 0x0, symName: __ZNSt3__16vectorIN11_VampPlugin4Vamp6Plugin7FeatureENS_9allocatorIS4_EEED2B7v160006Ev, symObjAddr: 0x5444, symBinAddr: 0x13F60, symSize: 0x38 }
  - { offsetInCU: 0x3B851, offset: 0xBE171, size: 0x8, addend: 0x0, symName: __ZNKSt3__16vectorIdNS_9allocatorIdEEE20__throw_length_errorB7v160006Ev, symObjAddr: 0x5CD0, symBinAddr: 0x14724, symSize: 0x14 }
  - { offsetInCU: 0x3B87B, offset: 0xBE19B, size: 0x8, addend: 0x0, symName: __ZNSt3__119__allocate_at_leastB7v160006INS_9allocatorIdEEEENS_19__allocation_resultINS_16allocator_traitsIT_E7pointerEEERS5_m, symObjAddr: 0x5CE4, symBinAddr: 0x14738, symSize: 0x34 }
  - { offsetInCU: 0x3B8A9, offset: 0xBE1C9, size: 0x8, addend: 0x0, symName: __ZNKSt3__16vectorIN11_VampPlugin4Vamp8RealTimeENS_9allocatorIS3_EEE20__throw_length_errorB7v160006Ev, symObjAddr: 0x55C4, symBinAddr: 0x140E0, symSize: 0x14 }
  - { offsetInCU: 0x3B8D3, offset: 0xBE1F3, size: 0x8, addend: 0x0, symName: __ZNSt3__119__allocate_at_leastB7v160006INS_9allocatorIN11_VampPlugin4Vamp8RealTimeEEEEENS_19__allocation_resultINS_16allocator_traitsIT_E7pointerEEERS8_m, symObjAddr: 0x55D8, symBinAddr: 0x140F4, symSize: 0x34 }
  - { offsetInCU: 0x3B8DE, offset: 0xBE1FE, size: 0x8, addend: 0x0, symName: __ZN11_VampPlugin4Vamp6Plugin7FeatureD1Ev, symObjAddr: 0x3ABC, symBinAddr: 0x12E24, symSize: 0x40 }
  - { offsetInCU: 0x3BBAD, offset: 0xBE4CD, size: 0x8, addend: 0x0, symName: __ZNSt3__16__treeINS_12__value_typeIiNS_6vectorIN11_VampPlugin4Vamp6Plugin7FeatureENS_9allocatorIS6_EEEEEENS_19__map_value_compareIiSA_NS_4lessIiEELb1EEENS7_ISA_EEE7destroyEPNS_11__tree_nodeISA_PvEE, symObjAddr: 0x53FC, symBinAddr: 0x13F18, symSize: 0x48 }
  - { offsetInCU: 0x3C45D, offset: 0xBED7D, size: 0x8, addend: 0x0, symName: __ZNSt3__114__split_bufferINS_6vectorIdNS_9allocatorIdEEEERNS2_IS4_EEED2Ev, symObjAddr: 0x5F04, symBinAddr: 0x14958, symSize: 0x34 }
  - { offsetInCU: 0x3C579, offset: 0xBEE99, size: 0x8, addend: 0x0, symName: __ZNKSt3__16vectorINS0_IdNS_9allocatorIdEEEENS1_IS3_EEE20__throw_length_errorB7v160006Ev, symObjAddr: 0x5D8C, symBinAddr: 0x147E0, symSize: 0x14 }
  - { offsetInCU: 0x3C5A3, offset: 0xBEEC3, size: 0x8, addend: 0x0, symName: __ZNSt3__119__allocate_at_leastB7v160006INS_9allocatorINS_6vectorIdNS1_IdEEEEEEEENS_19__allocation_resultINS_16allocator_traitsIT_E7pointerEEERS8_m, symObjAddr: 0x5DA0, symBinAddr: 0x147F4, symSize: 0x44 }
  - { offsetInCU: 0x3C5AE, offset: 0xBEECE, size: 0x8, addend: 0x0, symName: __ZNK11_VampPlugin4Vamp10PluginBase17getVampApiVersionEv, symObjAddr: 0x3E08, symBinAddr: 0x13170, symSize: 0x8 }
  - { offsetInCU: 0x3C5D5, offset: 0xBEEF5, size: 0x8, addend: 0x0, symName: __ZNK11_VampPlugin4Vamp6Plugin7getTypeEv, symObjAddr: 0x3E10, symBinAddr: 0x13178, symSize: 0x10 }
  - { offsetInCU: 0x3C95F, offset: 0xBF27F, size: 0x8, addend: 0x0, symName: __ZNSt3__16vectorIN11_VampPlugin4Vamp10PluginBase19ParameterDescriptorENS_9allocatorIS4_EEE16__destroy_vectorclB7v160006Ev, symObjAddr: 0x3F30, symBinAddr: 0x131C0, symSize: 0x84 }
  - { offsetInCU: 0x3CB9A, offset: 0xBF4BA, size: 0x8, addend: 0x0, symName: __ZNSt3__19allocatorIN11_VampPlugin4Vamp10PluginBase19ParameterDescriptorEE7destroyB7v160006EPS4_, symObjAddr: 0x3FB4, symBinAddr: 0x13244, symSize: 0x6C }
  - { offsetInCU: 0x3D3C5, offset: 0xBFCE5, size: 0x8, addend: 0x0, symName: __ZNSt3__16vectorINS0_IiNS_9allocatorIiEEEENS1_IS3_EEE16__destroy_vectorclB7v160006Ev, symObjAddr: 0x4228, symBinAddr: 0x132E4, symSize: 0x40 }
  - { offsetInCU: 0x3D515, offset: 0xBFE35, size: 0x8, addend: 0x0, symName: __ZNSt3__16vectorINS0_IiNS_9allocatorIiEEEENS1_IS3_EEE7__clearB7v160006Ev, symObjAddr: 0x4268, symBinAddr: 0x13324, symSize: 0x54 }
  - { offsetInCU: 0x3D7C4, offset: 0xC00E4, size: 0x8, addend: 0x0, symName: __ZNSt3__16vectorINS_12basic_stringIcNS_11char_traitsIcEENS_9allocatorIcEEEENS4_IS6_EEE11__vallocateB7v160006Em, symObjAddr: 0x42BC, symBinAddr: 0x13378, symSize: 0x50 }
  - { offsetInCU: 0x3DC1D, offset: 0xC053D, size: 0x8, addend: 0x0, symName: __ZN11_VampPlugin4Vamp10PluginBase19ParameterDescriptorC2ERKS2_, symObjAddr: 0x4708, symBinAddr: 0x13434, symSize: 0xE8 }
  - { offsetInCU: 0x3DCD3, offset: 0xC05F3, size: 0x8, addend: 0x0, symName: __ZNSt3__16vectorINS_12basic_stringIcNS_11char_traitsIcEENS_9allocatorIcEEEENS4_IS6_EEEC2ERKS8_, symObjAddr: 0x47F0, symBinAddr: 0x1351C, symSize: 0xB4 }
  - { offsetInCU: 0x3E12D, offset: 0xC0A4D, size: 0x8, addend: 0x0, symName: __ZNSt3__128__exception_guard_exceptionsINS_29_AllocatorDestroyRangeReverseINS_9allocatorINS_12basic_stringIcNS_11char_traitsIcEENS2_IcEEEEEEPS7_EEED2B7v160006Ev, symObjAddr: 0x4944, symBinAddr: 0x13670, symSize: 0x34 }
  - { offsetInCU: 0x3E16E, offset: 0xC0A8E, size: 0x8, addend: 0x0, symName: __ZNKSt3__129_AllocatorDestroyRangeReverseINS_9allocatorINS_12basic_stringIcNS_11char_traitsIcEENS1_IcEEEEEEPS6_EclB7v160006Ev, symObjAddr: 0x4978, symBinAddr: 0x136A4, symSize: 0x4C }
  - { offsetInCU: 0x3E5BA, offset: 0xC0EDA, size: 0x8, addend: 0x0, symName: __ZNSt3__128__exception_guard_exceptionsINS_29_AllocatorDestroyRangeReverseINS_9allocatorIN11_VampPlugin4Vamp10PluginBase19ParameterDescriptorEEENS_16reverse_iteratorIPS6_EEEEED2B7v160006Ev, symObjAddr: 0x4BB4, symBinAddr: 0x138E0, symSize: 0x34 }
  - { offsetInCU: 0x3E5FB, offset: 0xC0F1B, size: 0x8, addend: 0x0, symName: __ZNKSt3__129_AllocatorDestroyRangeReverseINS_9allocatorIN11_VampPlugin4Vamp10PluginBase19ParameterDescriptorEEENS_16reverse_iteratorIPS5_EEEclB7v160006Ev, symObjAddr: 0x4BE8, symBinAddr: 0x13914, symSize: 0x50 }
  - { offsetInCU: 0x3E6DC, offset: 0xC0FFC, size: 0x8, addend: 0x0, symName: __ZNSt3__114__split_bufferIN11_VampPlugin4Vamp10PluginBase19ParameterDescriptorERNS_9allocatorIS4_EEE5clearB7v160006Ev, symObjAddr: 0x4C68, symBinAddr: 0x13994, symSize: 0x44 }
  - { offsetInCU: 0x3EB7C, offset: 0xC149C, size: 0x8, addend: 0x0, symName: __ZNSt3__16vectorIN11_VampPlugin4Vamp6Plugin16OutputDescriptorENS_9allocatorIS4_EEE16__destroy_vectorclB7v160006Ev, symObjAddr: 0x4EF4, symBinAddr: 0x13A10, symSize: 0x84 }
  - { offsetInCU: 0x3EDB7, offset: 0xC16D7, size: 0x8, addend: 0x0, symName: __ZNSt3__19allocatorIN11_VampPlugin4Vamp6Plugin16OutputDescriptorEE7destroyB7v160006EPS4_, symObjAddr: 0x4F78, symBinAddr: 0x13A94, symSize: 0x6C }
  - { offsetInCU: 0x3F48C, offset: 0xC1DAC, size: 0x8, addend: 0x0, symName: __ZNSt3__128__exception_guard_exceptionsINS_29_AllocatorDestroyRangeReverseINS_9allocatorIN11_VampPlugin4Vamp6Plugin16OutputDescriptorEEENS_16reverse_iteratorIPS6_EEEEED2B7v160006Ev, symObjAddr: 0x52CC, symBinAddr: 0x13DE8, symSize: 0x34 }
  - { offsetInCU: 0x3F4CD, offset: 0xC1DED, size: 0x8, addend: 0x0, symName: __ZNKSt3__129_AllocatorDestroyRangeReverseINS_9allocatorIN11_VampPlugin4Vamp6Plugin16OutputDescriptorEEENS_16reverse_iteratorIPS5_EEEclB7v160006Ev, symObjAddr: 0x5300, symBinAddr: 0x13E1C, symSize: 0x50 }
  - { offsetInCU: 0x3F5AE, offset: 0xC1ECE, size: 0x8, addend: 0x0, symName: __ZNSt3__114__split_bufferIN11_VampPlugin4Vamp6Plugin16OutputDescriptorERNS_9allocatorIS4_EEE5clearB7v160006Ev, symObjAddr: 0x5380, symBinAddr: 0x13E9C, symSize: 0x44 }
  - { offsetInCU: 0x3F885, offset: 0xC21A5, size: 0x8, addend: 0x0, symName: __ZNSt3__16vectorIN11_VampPlugin4Vamp6Plugin7FeatureENS_9allocatorIS4_EEE16__destroy_vectorclB7v160006Ev, symObjAddr: 0x547C, symBinAddr: 0x13F98, symSize: 0x84 }
  - { offsetInCU: 0x3FD3A, offset: 0xC265A, size: 0x8, addend: 0x0, symName: __ZNSt3__114__split_bufferIN11_VampPlugin4Vamp6Plugin7FeatureERNS_9allocatorIS4_EEED2Ev, symObjAddr: 0x59C0, symBinAddr: 0x144DC, symSize: 0x30 }
  - { offsetInCU: 0x3FE37, offset: 0xC2757, size: 0x8, addend: 0x0, symName: __ZNKSt3__16vectorIN11_VampPlugin4Vamp6Plugin7FeatureENS_9allocatorIS4_EEE20__throw_length_errorB7v160006Ev, symObjAddr: 0x5818, symBinAddr: 0x14334, symSize: 0x14 }
  - { offsetInCU: 0x3FE61, offset: 0xC2781, size: 0x8, addend: 0x0, symName: __ZNSt3__119__allocate_at_leastB7v160006INS_9allocatorIN11_VampPlugin4Vamp6Plugin7FeatureEEEEENS_19__allocation_resultINS_16allocator_traitsIT_E7pointerEEERS9_m, symObjAddr: 0x582C, symBinAddr: 0x14348, symSize: 0x48 }
  - { offsetInCU: 0x3FF97, offset: 0xC28B7, size: 0x8, addend: 0x0, symName: __ZNSt3__128__exception_guard_exceptionsINS_29_AllocatorDestroyRangeReverseINS_9allocatorIN11_VampPlugin4Vamp6Plugin7FeatureEEENS_16reverse_iteratorIPS6_EEEEED2B7v160006Ev, symObjAddr: 0x593C, symBinAddr: 0x14458, symSize: 0x34 }
  - { offsetInCU: 0x3FFD8, offset: 0xC28F8, size: 0x8, addend: 0x0, symName: __ZNKSt3__129_AllocatorDestroyRangeReverseINS_9allocatorIN11_VampPlugin4Vamp6Plugin7FeatureEEENS_16reverse_iteratorIPS5_EEEclB7v160006Ev, symObjAddr: 0x5970, symBinAddr: 0x1448C, symSize: 0x50 }
  - { offsetInCU: 0x400B9, offset: 0xC29D9, size: 0x8, addend: 0x0, symName: __ZNSt3__114__split_bufferIN11_VampPlugin4Vamp6Plugin7FeatureERNS_9allocatorIS4_EEE5clearB7v160006Ev, symObjAddr: 0x59F0, symBinAddr: 0x1450C, symSize: 0x44 }
  - { offsetInCU: 0x402A7, offset: 0xC2BC7, size: 0x8, addend: 0x0, symName: __ZNSt3__16vectorINS0_IdNS_9allocatorIdEEEENS1_IS3_EEE16__destroy_vectorclB7v160006Ev, symObjAddr: 0x5A6C, symBinAddr: 0x14588, symSize: 0x40 }
  - { offsetInCU: 0x403F2, offset: 0xC2D12, size: 0x8, addend: 0x0, symName: __ZNSt3__16vectorINS0_IdNS_9allocatorIdEEEENS1_IS3_EEE7__clearB7v160006Ev, symObjAddr: 0x5AAC, symBinAddr: 0x145C8, symSize: 0x54 }
  - { offsetInCU: 0x40892, offset: 0xC31B2, size: 0x8, addend: 0x0, symName: __ZNSt3__128__exception_guard_exceptionsINS_29_AllocatorDestroyRangeReverseINS_9allocatorINS_6vectorIdNS2_IdEEEEEENS_16reverse_iteratorIPS5_EEEEED2B7v160006Ev, symObjAddr: 0x5E8C, symBinAddr: 0x148E0, symSize: 0x34 }
  - { offsetInCU: 0x408D3, offset: 0xC31F3, size: 0x8, addend: 0x0, symName: __ZNKSt3__129_AllocatorDestroyRangeReverseINS_9allocatorINS_6vectorIdNS1_IdEEEEEENS_16reverse_iteratorIPS4_EEEclB7v160006Ev, symObjAddr: 0x5EC0, symBinAddr: 0x14914, symSize: 0x44 }
  - { offsetInCU: 0x40B29, offset: 0xC3449, size: 0x8, addend: 0x0, symName: __ZNSt3__114__split_bufferINS_6vectorIdNS_9allocatorIdEEEERNS2_IS4_EEE17__destruct_at_endB7v160006EPS4_, symObjAddr: 0x5F38, symBinAddr: 0x1498C, symSize: 0x58 }
  - { offsetInCU: 0x40E14, offset: 0xC3734, size: 0x8, addend: 0x0, symName: __ZNSt3__16vectorIdNS_9allocatorIdEEE11__vallocateB7v160006Em, symObjAddr: 0x6010, symBinAddr: 0x14A64, symSize: 0x40 }
  - { offsetInCU: 0x40E94, offset: 0xC37B4, size: 0x8, addend: 0x0, symName: __ZNSt3__16vectorIdNS_9allocatorIdEEEC2ERKS3_, symObjAddr: 0x6050, symBinAddr: 0x14AA4, symSize: 0x80 }
  - { offsetInCU: 0x410EE, offset: 0xC3A0E, size: 0x8, addend: 0x0, symName: __ZNSt3__16vectorINS0_IdNS_9allocatorIdEEEENS1_IS3_EEE11__vallocateB7v160006Em, symObjAddr: 0x6184, symBinAddr: 0x14BD8, symSize: 0x50 }
  - { offsetInCU: 0x4116E, offset: 0xC3A8E, size: 0x8, addend: 0x0, symName: __ZNSt3__130__uninitialized_allocator_copyB7v160006INS_9allocatorINS_6vectorIdNS1_IdEEEEEEPS4_S6_S6_EET2_RT_T0_T1_S7_, symObjAddr: 0x61D4, symBinAddr: 0x14C28, symSize: 0xA0 }
  - { offsetInCU: 0x41182, offset: 0xC3AA2, size: 0x8, addend: 0x0, symName: __ZNSt3__128__exception_guard_exceptionsINS_6vectorINS1_IdNS_9allocatorIdEEEENS2_IS4_EEE16__destroy_vectorEED2B7v160006Ev, symObjAddr: 0x62F4, symBinAddr: 0x14D48, symSize: 0x34 }
  - { offsetInCU: 0x412D1, offset: 0xC3BF1, size: 0x8, addend: 0x0, symName: __ZNSt3__128__exception_guard_exceptionsINS_29_AllocatorDestroyRangeReverseINS_9allocatorINS_6vectorIdNS2_IdEEEEEEPS5_EEED2B7v160006Ev, symObjAddr: 0x6274, symBinAddr: 0x14CC8, symSize: 0x34 }
  - { offsetInCU: 0x41312, offset: 0xC3C32, size: 0x8, addend: 0x0, symName: __ZNKSt3__129_AllocatorDestroyRangeReverseINS_9allocatorINS_6vectorIdNS1_IdEEEEEEPS4_EclB7v160006Ev, symObjAddr: 0x62A8, symBinAddr: 0x14CFC, symSize: 0x4C }
  - { offsetInCU: 0x41A42, offset: 0xC4362, size: 0x8, addend: 0x0, symName: __ZNSt3__16__treeINS_12__value_typeIiNS_6vectorIN11_VampPlugin4Vamp6Plugin7FeatureENS_9allocatorIS6_EEEEEENS_19__map_value_compareIiSA_NS_4lessIiEELb1EEENS7_ISA_EEE16__insert_node_atEPNS_15__tree_end_nodeIPNS_16__tree_node_baseIPvEEEERSL_SL_, symObjAddr: 0x6410, symBinAddr: 0x14E64, symSize: 0x54 }
  - { offsetInCU: 0x41AAC, offset: 0xC43CC, size: 0x8, addend: 0x0, symName: __ZNSt3__110unique_ptrINS_11__tree_nodeINS_12__value_typeIiNS_6vectorIN11_VampPlugin4Vamp6Plugin7FeatureENS_9allocatorIS7_EEEEEEPvEENS_22__tree_node_destructorINS8_ISD_EEEEE5resetB7v160006EPSD_, symObjAddr: 0x65FC, symBinAddr: 0x15050, symSize: 0x44 }
  - { offsetInCU: 0x26, offset: 0xC4699, size: 0x8, addend: 0x0, symName: __ZN9_VampHost4Vamp7HostExt13PluginWrapperC2EPNS0_6PluginE, symObjAddr: 0x0, symBinAddr: 0x15094, symSize: 0x24 }
  - { offsetInCU: 0xB2B7, offset: 0xCF92A, size: 0x8, addend: 0x0, symName: __ZN9_VampHost4Vamp7HostExt13PluginWrapperC2EPNS0_6PluginE, symObjAddr: 0x0, symBinAddr: 0x15094, symSize: 0x24 }
  - { offsetInCU: 0xB2E4, offset: 0xCF957, size: 0x8, addend: 0x0, symName: __ZN9_VampHost4Vamp7HostExt13PluginWrapperC2EPNS0_6PluginE, symObjAddr: 0x0, symBinAddr: 0x15094, symSize: 0x24 }
  - { offsetInCU: 0xB353, offset: 0xCF9C6, size: 0x8, addend: 0x0, symName: __ZN9_VampHost4Vamp7HostExt13PluginWrapperC1EPNS0_6PluginE, symObjAddr: 0x24, symBinAddr: 0x150B8, symSize: 0x24 }
  - { offsetInCU: 0xB38F, offset: 0xCFA02, size: 0x8, addend: 0x0, symName: __ZN9_VampHost4Vamp7HostExt13PluginWrapperC1EPNS0_6PluginE, symObjAddr: 0x24, symBinAddr: 0x150B8, symSize: 0x24 }
  - { offsetInCU: 0xB3B4, offset: 0xCFA27, size: 0x8, addend: 0x0, symName: __ZN9_VampHost4Vamp7HostExt13PluginWrapperC1EPNS0_6PluginE, symObjAddr: 0x24, symBinAddr: 0x150B8, symSize: 0x24 }
  - { offsetInCU: 0xB3F7, offset: 0xCFA6A, size: 0x8, addend: 0x0, symName: __ZN9_VampHost4Vamp7HostExt13PluginWrapperD2Ev, symObjAddr: 0x48, symBinAddr: 0x150DC, symSize: 0x48 }
  - { offsetInCU: 0xB442, offset: 0xCFAB5, size: 0x8, addend: 0x0, symName: __ZN9_VampHost4Vamp7HostExt13PluginWrapperD1Ev, symObjAddr: 0x90, symBinAddr: 0x15124, symSize: 0x48 }
  - { offsetInCU: 0xB4AB, offset: 0xCFB1E, size: 0x8, addend: 0x0, symName: __ZN9_VampHost4Vamp7HostExt13PluginWrapperD0Ev, symObjAddr: 0xD8, symBinAddr: 0x1516C, symSize: 0x48 }
  - { offsetInCU: 0xB520, offset: 0xCFB93, size: 0x8, addend: 0x0, symName: __ZN9_VampHost4Vamp7HostExt13PluginWrapper12disownPluginEv, symObjAddr: 0x120, symBinAddr: 0x151B4, symSize: 0x8 }
  - { offsetInCU: 0xB547, offset: 0xCFBBA, size: 0x8, addend: 0x0, symName: __ZN9_VampHost4Vamp7HostExt13PluginWrapper10initialiseEmmm, symObjAddr: 0x128, symBinAddr: 0x151BC, symSize: 0x10 }
  - { offsetInCU: 0xB5BF, offset: 0xCFC32, size: 0x8, addend: 0x0, symName: __ZN9_VampHost4Vamp7HostExt13PluginWrapper5resetEv, symObjAddr: 0x138, symBinAddr: 0x151CC, symSize: 0x10 }
  - { offsetInCU: 0xB5F4, offset: 0xCFC67, size: 0x8, addend: 0x0, symName: __ZNK9_VampHost4Vamp7HostExt13PluginWrapper14getInputDomainEv, symObjAddr: 0x148, symBinAddr: 0x151DC, symSize: 0x10 }
  - { offsetInCU: 0xB629, offset: 0xCFC9C, size: 0x8, addend: 0x0, symName: __ZNK9_VampHost4Vamp7HostExt13PluginWrapper17getVampApiVersionEv, symObjAddr: 0x158, symBinAddr: 0x151EC, symSize: 0x10 }
  - { offsetInCU: 0xB65E, offset: 0xCFCD1, size: 0x8, addend: 0x0, symName: __ZNK9_VampHost4Vamp7HostExt13PluginWrapper13getIdentifierEv, symObjAddr: 0x168, symBinAddr: 0x151FC, symSize: 0x10 }
  - { offsetInCU: 0xB69C, offset: 0xCFD0F, size: 0x8, addend: 0x0, symName: __ZNK9_VampHost4Vamp7HostExt13PluginWrapper7getNameEv, symObjAddr: 0x178, symBinAddr: 0x1520C, symSize: 0x10 }
  - { offsetInCU: 0xB6DA, offset: 0xCFD4D, size: 0x8, addend: 0x0, symName: __ZNK9_VampHost4Vamp7HostExt13PluginWrapper14getDescriptionEv, symObjAddr: 0x188, symBinAddr: 0x1521C, symSize: 0x10 }
  - { offsetInCU: 0xB718, offset: 0xCFD8B, size: 0x8, addend: 0x0, symName: __ZNK9_VampHost4Vamp7HostExt13PluginWrapper8getMakerEv, symObjAddr: 0x198, symBinAddr: 0x1522C, symSize: 0x10 }
  - { offsetInCU: 0xB756, offset: 0xCFDC9, size: 0x8, addend: 0x0, symName: __ZNK9_VampHost4Vamp7HostExt13PluginWrapper16getPluginVersionEv, symObjAddr: 0x1A8, symBinAddr: 0x1523C, symSize: 0x10 }
  - { offsetInCU: 0xB78B, offset: 0xCFDFE, size: 0x8, addend: 0x0, symName: __ZNK9_VampHost4Vamp7HostExt13PluginWrapper12getCopyrightEv, symObjAddr: 0x1B8, symBinAddr: 0x1524C, symSize: 0x10 }
  - { offsetInCU: 0xB7C9, offset: 0xCFE3C, size: 0x8, addend: 0x0, symName: __ZNK9_VampHost4Vamp7HostExt13PluginWrapper23getParameterDescriptorsEv, symObjAddr: 0x1C8, symBinAddr: 0x1525C, symSize: 0x10 }
  - { offsetInCU: 0xB8D2, offset: 0xCFF45, size: 0x8, addend: 0x0, symName: __ZNK9_VampHost4Vamp7HostExt13PluginWrapper12getParameterENSt3__112basic_stringIcNS3_11char_traitsIcEENS3_9allocatorIcEEEE, symObjAddr: 0x1D8, symBinAddr: 0x1526C, symSize: 0x7C }
  - { offsetInCU: 0xBB96, offset: 0xD0209, size: 0x8, addend: 0x0, symName: __ZN9_VampHost4Vamp7HostExt13PluginWrapper12setParameterENSt3__112basic_stringIcNS3_11char_traitsIcEENS3_9allocatorIcEEEEf, symObjAddr: 0x254, symBinAddr: 0x152E8, symSize: 0x7C }
  - { offsetInCU: 0xBE6A, offset: 0xD04DD, size: 0x8, addend: 0x0, symName: __ZNK9_VampHost4Vamp7HostExt13PluginWrapper11getProgramsEv, symObjAddr: 0x2D0, symBinAddr: 0x15364, symSize: 0x10 }
  - { offsetInCU: 0xBEA8, offset: 0xD051B, size: 0x8, addend: 0x0, symName: __ZNK9_VampHost4Vamp7HostExt13PluginWrapper17getCurrentProgramEv, symObjAddr: 0x2E0, symBinAddr: 0x15374, symSize: 0x10 }
  - { offsetInCU: 0xBEE6, offset: 0xD0559, size: 0x8, addend: 0x0, symName: __ZN9_VampHost4Vamp7HostExt13PluginWrapper13selectProgramENSt3__112basic_stringIcNS3_11char_traitsIcEENS3_9allocatorIcEEEE, symObjAddr: 0x2F0, symBinAddr: 0x15384, symSize: 0x6C }
  - { offsetInCU: 0xC1AA, offset: 0xD081D, size: 0x8, addend: 0x0, symName: __ZNK9_VampHost4Vamp7HostExt13PluginWrapper20getPreferredStepSizeEv, symObjAddr: 0x35C, symBinAddr: 0x153F0, symSize: 0x10 }
  - { offsetInCU: 0xC1DF, offset: 0xD0852, size: 0x8, addend: 0x0, symName: __ZNK9_VampHost4Vamp7HostExt13PluginWrapper21getPreferredBlockSizeEv, symObjAddr: 0x36C, symBinAddr: 0x15400, symSize: 0x10 }
  - { offsetInCU: 0xC214, offset: 0xD0887, size: 0x8, addend: 0x0, symName: __ZNK9_VampHost4Vamp7HostExt13PluginWrapper18getMinChannelCountEv, symObjAddr: 0x37C, symBinAddr: 0x15410, symSize: 0x10 }
  - { offsetInCU: 0xC249, offset: 0xD08BC, size: 0x8, addend: 0x0, symName: __ZNK9_VampHost4Vamp7HostExt13PluginWrapper18getMaxChannelCountEv, symObjAddr: 0x38C, symBinAddr: 0x15420, symSize: 0x10 }
  - { offsetInCU: 0xC27E, offset: 0xD08F1, size: 0x8, addend: 0x0, symName: __ZNK9_VampHost4Vamp7HostExt13PluginWrapper20getOutputDescriptorsEv, symObjAddr: 0x39C, symBinAddr: 0x15430, symSize: 0x10 }
  - { offsetInCU: 0xC30D, offset: 0xD0980, size: 0x8, addend: 0x0, symName: __ZN9_VampHost4Vamp7HostExt13PluginWrapper7processEPKPKfNS0_8RealTimeE, symObjAddr: 0x3AC, symBinAddr: 0x15440, symSize: 0x34 }
  - { offsetInCU: 0xC3CA, offset: 0xD0A3D, size: 0x8, addend: 0x0, symName: __ZN9_VampHost4Vamp7HostExt13PluginWrapper20getRemainingFeaturesEv, symObjAddr: 0x3E0, symBinAddr: 0x15474, symSize: 0x10 }
  - { offsetInCU: 0x6942, offset: 0xD73C6, size: 0x8, addend: 0x0, symName: __ZNSt3__120__throw_out_of_rangeB7v160006EPKc, symObjAddr: 0x165C, symBinAddr: 0x16190, symSize: 0x50 }
  - { offsetInCU: 0x8CA1, offset: 0xD9725, size: 0x8, addend: 0x0, symName: __ZN5Files16listLibraryFilesEv, symObjAddr: 0x0, symBinAddr: 0x15484, symSize: 0x58 }
  - { offsetInCU: 0x8E2F, offset: 0xD98B3, size: 0x8, addend: 0x0, symName: __ZN5Files24listLibraryFilesMatchingENS_6FilterE, symObjAddr: 0x58, symBinAddr: 0x154DC, symSize: 0x600 }
  - { offsetInCU: 0xB3B7, offset: 0xDBE3B, size: 0x8, addend: 0x0, symName: __ZN5Files9listFilesENSt3__112basic_stringIcNS0_11char_traitsIcEENS0_9allocatorIcEEEES6_, symObjAddr: 0x770, symBinAddr: 0x15ADC, symSize: 0x2C4 }
  - { offsetInCU: 0xC05D, offset: 0xDCAE1, size: 0x8, addend: 0x0, symName: __ZN5Files10splicePathENSt3__112basic_stringIcNS0_11char_traitsIcEENS0_9allocatorIcEEEES6_, symObjAddr: 0xA34, symBinAddr: 0x15DA0, symSize: 0xFC }
  - { offsetInCU: 0xD01E, offset: 0xDDAA2, size: 0x8, addend: 0x0, symName: __ZNKSt3__112basic_stringIcNS_11char_traitsIcEENS_9allocatorIcEEE20__throw_out_of_rangeB7v160006Ev, symObjAddr: 0x1648, symBinAddr: 0x1617C, symSize: 0x14 }
  - { offsetInCU: 0xD047, offset: 0xDDACB, size: 0x8, addend: 0x0, symName: __ZNSt3__120__throw_out_of_rangeB7v160006EPKc, symObjAddr: 0x165C, symBinAddr: 0x16190, symSize: 0x50 }
  - { offsetInCU: 0xD24A, offset: 0xDDCCE, size: 0x8, addend: 0x0, symName: __ZNKSt3__112basic_stringIcNS_11char_traitsIcEENS_9allocatorIcEEE20__throw_out_of_rangeB7v160006Ev, symObjAddr: 0x1648, symBinAddr: 0x1617C, symSize: 0x14 }
  - { offsetInCU: 0xD2E6, offset: 0xDDD6A, size: 0x8, addend: 0x0, symName: __ZN5Files11loadLibraryENSt3__112basic_stringIcNS0_11char_traitsIcEENS0_9allocatorIcEEEE, symObjAddr: 0xB30, symBinAddr: 0x15E9C, symSize: 0x11C }
  - { offsetInCU: 0xD63A, offset: 0xDE0BE, size: 0x8, addend: 0x0, symName: __ZN5Files13unloadLibraryEPv, symObjAddr: 0xC4C, symBinAddr: 0x15FB8, symSize: 0x4 }
  - { offsetInCU: 0xD662, offset: 0xDE0E6, size: 0x8, addend: 0x0, symName: __ZN5Files13unloadLibraryEPv, symObjAddr: 0xC4C, symBinAddr: 0x15FB8, symSize: 0x4 }
  - { offsetInCU: 0xD688, offset: 0xDE10C, size: 0x8, addend: 0x0, symName: __ZN5Files15lookupInLibraryEPvPKc, symObjAddr: 0xC50, symBinAddr: 0x15FBC, symSize: 0x4 }
  - { offsetInCU: 0xD6BE, offset: 0xDE142, size: 0x8, addend: 0x0, symName: __ZN5Files15lookupInLibraryEPvPKc, symObjAddr: 0xC50, symBinAddr: 0x15FBC, symSize: 0x4 }
  - { offsetInCU: 0xD6F1, offset: 0xDE175, size: 0x8, addend: 0x0, symName: __ZN5Files10lcBasenameENSt3__112basic_stringIcNS0_11char_traitsIcEENS0_9allocatorIcEEEE, symObjAddr: 0xC54, symBinAddr: 0x15FC0, symSize: 0x154 }
  - { offsetInCU: 0xDCAE, offset: 0xDE732, size: 0x8, addend: 0x0, symName: __ZN5Files16isNonNative32BitEv, symObjAddr: 0xDA8, symBinAddr: 0x16114, symSize: 0x8 }
  - { offsetInCU: 0xDCE8, offset: 0xDE76C, size: 0x8, addend: 0x0, symName: __ZN5Files10getEnvUtf8ENSt3__112basic_stringIcNS0_11char_traitsIcEENS0_9allocatorIcEEEERS6_, symObjAddr: 0xDB0, symBinAddr: 0x1611C, symSize: 0x60 }
  - { offsetInCU: 0xE9EB, offset: 0xDF46F, size: 0x8, addend: 0x0, symName: __ZNSt12out_of_rangeC1B7v160006EPKc, symObjAddr: 0x16AC, symBinAddr: 0x161E0, symSize: 0x24 }
  - { offsetInCU: 0x5F, offset: 0xDF55E, size: 0x8, addend: 0x0, symName: __ZNSt3__1L19piecewise_constructE, symObjAddr: 0x4105, symBinAddr: 0x2BAF5, symSize: 0x0 }
  - { offsetInCU: 0x12505, offset: 0xF1A04, size: 0x8, addend: 0x0, symName: __ZNSt3__119__allocate_at_leastB7v160006INS_9allocatorIPN9_VampHost4Vamp7HostExt22PluginBufferingAdapter4Impl10RingBufferEEEEENS_19__allocation_resultINS_16allocator_traitsIT_E7pointerEEERSC_m, symObjAddr: 0x1FB0, symBinAddr: 0x17F80, symSize: 0x34 }
  - { offsetInCU: 0x125AE, offset: 0xF1AAD, size: 0x8, addend: 0x0, symName: __ZNSt3__16__treeINS_12__value_typeIibEENS_19__map_value_compareIiS2_NS_4lessIiEELb1EEENS_9allocatorIS2_EEE7destroyEPNS_11__tree_nodeIS2_PvEE, symObjAddr: 0x1FE4, symBinAddr: 0x17FB4, symSize: 0x40 }
  - { offsetInCU: 0x12B18, offset: 0xF2017, size: 0x8, addend: 0x0, symName: __ZNSt3__130__uninitialized_allocator_copyB7v160006INS_9allocatorIN9_VampHost4Vamp6Plugin16OutputDescriptorEEEPS5_S7_S7_EET2_RT_T0_T1_S8_, symObjAddr: 0x2574, symBinAddr: 0x1820C, symSize: 0xA0 }
  - { offsetInCU: 0x12D32, offset: 0xF2231, size: 0x8, addend: 0x0, symName: __ZNSt3__119__allocate_at_leastB7v160006INS_9allocatorIN9_VampHost4Vamp6Plugin16OutputDescriptorEEEEENS_19__allocation_resultINS_16allocator_traitsIT_E7pointerEEERS9_m, symObjAddr: 0x252C, symBinAddr: 0x181C4, symSize: 0x48 }
  - { offsetInCU: 0x12DDB, offset: 0xF22DA, size: 0x8, addend: 0x0, symName: __ZNSt3__130__uninitialized_allocator_copyB7v160006INS_9allocatorIN9_VampHost4Vamp6Plugin16OutputDescriptorEEEPS5_S7_S7_EET2_RT_T0_T1_S8_, symObjAddr: 0x2574, symBinAddr: 0x1820C, symSize: 0xA0 }
  - { offsetInCU: 0x133A1, offset: 0xF28A0, size: 0x8, addend: 0x0, symName: __ZNSt3__130__uninitialized_allocator_copyB7v160006INS_9allocatorIN9_VampHost4Vamp6Plugin7FeatureEEEPS5_S7_S7_EET2_RT_T0_T1_S8_, symObjAddr: 0x2F94, symBinAddr: 0x187E4, symSize: 0xA8 }
  - { offsetInCU: 0x1357D, offset: 0xF2A7C, size: 0x8, addend: 0x0, symName: __ZNSt3__119__allocate_at_leastB7v160006INS_9allocatorIN9_VampHost4Vamp6Plugin7FeatureEEEEENS_19__allocation_resultINS_16allocator_traitsIT_E7pointerEEERS9_m, symObjAddr: 0x2F4C, symBinAddr: 0x1879C, symSize: 0x48 }
  - { offsetInCU: 0x13626, offset: 0xF2B25, size: 0x8, addend: 0x0, symName: __ZNSt3__130__uninitialized_allocator_copyB7v160006INS_9allocatorIN9_VampHost4Vamp6Plugin7FeatureEEEPS5_S7_S7_EET2_RT_T0_T1_S8_, symObjAddr: 0x2F94, symBinAddr: 0x187E4, symSize: 0xA8 }
  - { offsetInCU: 0x13756, offset: 0xF2C55, size: 0x8, addend: 0x0, symName: __ZNSt3__128__exception_guard_exceptionsINS_29_AllocatorDestroyRangeReverseINS_9allocatorIN9_VampHost4Vamp6Plugin7FeatureEEEPS6_EEED2B7v160006Ev, symObjAddr: 0x31C4, symBinAddr: 0x1890C, symSize: 0x34 }
  - { offsetInCU: 0x138AD, offset: 0xF2DAC, size: 0x8, addend: 0x0, symName: __ZNSt3__142__uninitialized_allocator_move_if_noexceptB7v160006INS_9allocatorIN9_VampHost4Vamp6Plugin7FeatureEEENS_16reverse_iteratorIPS5_EES9_S9_EET2_RT_T0_T1_SA_, symObjAddr: 0x3708, symBinAddr: 0x18E50, symSize: 0xC8 }
  - { offsetInCU: 0x16498, offset: 0xF5997, size: 0x8, addend: 0x0, symName: __ZNSt3__16vectorIN9_VampHost4Vamp6Plugin7FeatureENS_9allocatorIS4_EEE26__swap_out_circular_bufferERNS_14__split_bufferIS4_RS6_EE, symObjAddr: 0x3694, symBinAddr: 0x18DDC, symSize: 0x74 }
  - { offsetInCU: 0x18354, offset: 0xF7853, size: 0x8, addend: 0x0, symName: __ZN9_VampHost4Vamp7HostExt22PluginBufferingAdapterC2EPNS0_6PluginE, symObjAddr: 0x0, symBinAddr: 0x16204, symSize: 0x7C }
  - { offsetInCU: 0x183D9, offset: 0xF78D8, size: 0x8, addend: 0x0, symName: __ZN9_VampHost4Vamp7HostExt22PluginBufferingAdapter4ImplC2EPNS0_6PluginEf, symObjAddr: 0x1178, symBinAddr: 0x1737C, symSize: 0xE4 }
  - { offsetInCU: 0x188F1, offset: 0xF7DF0, size: 0x8, addend: 0x0, symName: __ZN9_VampHost4Vamp7HostExt22PluginBufferingAdapter4ImplC1EPNS0_6PluginEf, symObjAddr: 0x7C, symBinAddr: 0x16280, symSize: 0x4 }
  - { offsetInCU: 0x18926, offset: 0xF7E25, size: 0x8, addend: 0x0, symName: __ZN9_VampHost4Vamp7HostExt22PluginBufferingAdapter4ImplC1EPNS0_6PluginEf, symObjAddr: 0x7C, symBinAddr: 0x16280, symSize: 0x4 }
  - { offsetInCU: 0x1894C, offset: 0xF7E4B, size: 0x8, addend: 0x0, symName: __ZN9_VampHost4Vamp7HostExt22PluginBufferingAdapterC1EPNS0_6PluginE, symObjAddr: 0x80, symBinAddr: 0x16284, symSize: 0x4 }
  - { offsetInCU: 0x1898A, offset: 0xF7E89, size: 0x8, addend: 0x0, symName: __ZN9_VampHost4Vamp7HostExt22PluginBufferingAdapterC1EPNS0_6PluginE, symObjAddr: 0x80, symBinAddr: 0x16284, symSize: 0x4 }
  - { offsetInCU: 0x189C2, offset: 0xF7EC1, size: 0x8, addend: 0x0, symName: __ZN9_VampHost4Vamp7HostExt22PluginBufferingAdapterD2Ev, symObjAddr: 0x84, symBinAddr: 0x16288, symSize: 0x3C }
  - { offsetInCU: 0x18A1D, offset: 0xF7F1C, size: 0x8, addend: 0x0, symName: __ZN9_VampHost4Vamp7HostExt22PluginBufferingAdapter4ImplD2Ev, symObjAddr: 0x125C, symBinAddr: 0x17460, symSize: 0xA0 }
  - { offsetInCU: 0x18D90, offset: 0xF828F, size: 0x8, addend: 0x0, symName: __ZN9_VampHost4Vamp7HostExt22PluginBufferingAdapter4ImplD1Ev, symObjAddr: 0xC0, symBinAddr: 0x162C4, symSize: 0x4 }
  - { offsetInCU: 0x18DB4, offset: 0xF82B3, size: 0x8, addend: 0x0, symName: __ZN9_VampHost4Vamp7HostExt22PluginBufferingAdapter4ImplD1Ev, symObjAddr: 0xC0, symBinAddr: 0x162C4, symSize: 0x4 }
  - { offsetInCU: 0x18DC8, offset: 0xF82C7, size: 0x8, addend: 0x0, symName: __ZN9_VampHost4Vamp7HostExt22PluginBufferingAdapterD1Ev, symObjAddr: 0xC4, symBinAddr: 0x162C8, symSize: 0x4 }
  - { offsetInCU: 0x18DEC, offset: 0xF82EB, size: 0x8, addend: 0x0, symName: __ZN9_VampHost4Vamp7HostExt22PluginBufferingAdapterD1Ev, symObjAddr: 0xC4, symBinAddr: 0x162C8, symSize: 0x4 }
  - { offsetInCU: 0x18E22, offset: 0xF8321, size: 0x8, addend: 0x0, symName: __ZN9_VampHost4Vamp7HostExt22PluginBufferingAdapterD0Ev, symObjAddr: 0xC8, symBinAddr: 0x162CC, symSize: 0x14 }
  - { offsetInCU: 0x18E84, offset: 0xF8383, size: 0x8, addend: 0x0, symName: __ZNK9_VampHost4Vamp7HostExt22PluginBufferingAdapter20getPreferredStepSizeEv, symObjAddr: 0xDC, symBinAddr: 0x162E0, symSize: 0xC }
  - { offsetInCU: 0x18EC1, offset: 0xF83C0, size: 0x8, addend: 0x0, symName: __ZNK9_VampHost4Vamp7HostExt22PluginBufferingAdapter21getPreferredBlockSizeEv, symObjAddr: 0xE8, symBinAddr: 0x162EC, symSize: 0x4 }
  - { offsetInCU: 0x18EE9, offset: 0xF83E8, size: 0x8, addend: 0x0, symName: __ZNK9_VampHost4Vamp7HostExt22PluginBufferingAdapter26getPluginPreferredStepSizeEv, symObjAddr: 0xEC, symBinAddr: 0x162F0, symSize: 0x4 }
  - { offsetInCU: 0x18F11, offset: 0xF8410, size: 0x8, addend: 0x0, symName: __ZNK9_VampHost4Vamp7HostExt22PluginBufferingAdapter27getPluginPreferredBlockSizeEv, symObjAddr: 0xF0, symBinAddr: 0x162F4, symSize: 0x4 }
  - { offsetInCU: 0x18F39, offset: 0xF8438, size: 0x8, addend: 0x0, symName: __ZN9_VampHost4Vamp7HostExt22PluginBufferingAdapter17setPluginStepSizeEm, symObjAddr: 0xF4, symBinAddr: 0x162F8, symSize: 0x8 }
  - { offsetInCU: 0x18F89, offset: 0xF8488, size: 0x8, addend: 0x0, symName: __ZN9_VampHost4Vamp7HostExt22PluginBufferingAdapter4Impl17setPluginStepSizeEm, symObjAddr: 0xFC, symBinAddr: 0x16300, symSize: 0xB4 }
  - { offsetInCU: 0x1913C, offset: 0xF863B, size: 0x8, addend: 0x0, symName: __ZN9_VampHost4Vamp7HostExt22PluginBufferingAdapter18setPluginBlockSizeEm, symObjAddr: 0x1B0, symBinAddr: 0x163B4, symSize: 0x8 }
  - { offsetInCU: 0x1918C, offset: 0xF868B, size: 0x8, addend: 0x0, symName: __ZN9_VampHost4Vamp7HostExt22PluginBufferingAdapter4Impl18setPluginBlockSizeEm, symObjAddr: 0x1B8, symBinAddr: 0x163BC, symSize: 0xB4 }
  - { offsetInCU: 0x192E7, offset: 0xF87E6, size: 0x8, addend: 0x0, symName: __ZN9_VampHost4Vamp7HostExt22PluginBufferingAdapter26getActualStepAndBlockSizesERmS3_, symObjAddr: 0x26C, symBinAddr: 0x16470, symSize: 0x18 }
  - { offsetInCU: 0x1935E, offset: 0xF885D, size: 0x8, addend: 0x0, symName: __ZN9_VampHost4Vamp7HostExt22PluginBufferingAdapter4Impl26getActualStepAndBlockSizesERmS4_, symObjAddr: 0x284, symBinAddr: 0x16488, symSize: 0x14 }
  - { offsetInCU: 0x1938F, offset: 0xF888E, size: 0x8, addend: 0x0, symName: __ZN9_VampHost4Vamp7HostExt22PluginBufferingAdapter10initialiseEmmm, symObjAddr: 0x298, symBinAddr: 0x1649C, symSize: 0x8 }
  - { offsetInCU: 0x1940D, offset: 0xF890C, size: 0x8, addend: 0x0, symName: __ZN9_VampHost4Vamp7HostExt22PluginBufferingAdapter4Impl10initialiseEmmm, symObjAddr: 0x2A0, symBinAddr: 0x164A4, symSize: 0x470 }
  - { offsetInCU: 0x1A2D1, offset: 0xF97D0, size: 0x8, addend: 0x0, symName: __ZNSt3__19allocatorIN9_VampHost4Vamp6Plugin16OutputDescriptorEE7destroyB7v160006EPS4_, symObjAddr: 0x1E1C, symBinAddr: 0x17EB8, symSize: 0x6C }
  - { offsetInCU: 0x1A822, offset: 0xF9D21, size: 0x8, addend: 0x0, symName: __ZNK9_VampHost4Vamp7HostExt22PluginBufferingAdapter4Impl20getOutputDescriptorsEv, symObjAddr: 0x718, symBinAddr: 0x1691C, symSize: 0x1D4 }
  - { offsetInCU: 0x1AAE4, offset: 0xF9FE3, size: 0x8, addend: 0x0, symName: __ZNSt3__16vectorIN9_VampHost4Vamp6Plugin16OutputDescriptorENS_9allocatorIS4_EEED2B7v160006Ev, symObjAddr: 0x1D60, symBinAddr: 0x17DFC, symSize: 0x38 }
  - { offsetInCU: 0x1AB77, offset: 0xFA076, size: 0x8, addend: 0x0, symName: __ZNKSt3__16vectorIPN9_VampHost4Vamp7HostExt22PluginBufferingAdapter4Impl10RingBufferENS_9allocatorIS7_EEE20__throw_length_errorB7v160006Ev, symObjAddr: 0x1F9C, symBinAddr: 0x17F6C, symSize: 0x14 }
  - { offsetInCU: 0x1ABA1, offset: 0xFA0A0, size: 0x8, addend: 0x0, symName: __ZNSt3__119__allocate_at_leastB7v160006INS_9allocatorIPN9_VampHost4Vamp7HostExt22PluginBufferingAdapter4Impl10RingBufferEEEEENS_19__allocation_resultINS_16allocator_traitsIT_E7pointerEEERSC_m, symObjAddr: 0x1FB0, symBinAddr: 0x17F80, symSize: 0x34 }
  - { offsetInCU: 0x1ABAC, offset: 0xFA0AB, size: 0x8, addend: 0x0, symName: __ZNK9_VampHost4Vamp7HostExt22PluginBufferingAdapter20getOutputDescriptorsEv, symObjAddr: 0x710, symBinAddr: 0x16914, symSize: 0x8 }
  - { offsetInCU: 0x1ACA9, offset: 0xFA1A8, size: 0x8, addend: 0x0, symName: __ZNSt3__16vectorIN9_VampHost4Vamp6Plugin16OutputDescriptorENS_9allocatorIS4_EEE13__vdeallocateEv, symObjAddr: 0x239C, symBinAddr: 0x18034, symSize: 0x6C }
  - { offsetInCU: 0x1AE6B, offset: 0xFA36A, size: 0x8, addend: 0x0, symName: __ZNSt3__16vectorIN9_VampHost4Vamp6Plugin16OutputDescriptorENS_9allocatorIS4_EEEC2ERKS7_, symObjAddr: 0x2408, symBinAddr: 0x180A0, symSize: 0xBC }
  - { offsetInCU: 0x1B104, offset: 0xFA603, size: 0x8, addend: 0x0, symName: __ZNSt3__16__treeINS_12__value_typeIibEENS_19__map_value_compareIiS2_NS_4lessIiEELb1EEENS_9allocatorIS2_EEE25__emplace_unique_key_argsIiJRKNS_21piecewise_construct_tENS_5tupleIJRKiEEENSE_IJEEEEEENS_4pairINS_15__tree_iteratorIS2_PNS_11__tree_nodeIS2_PvEElEEbEERKT_DpOT0_, symObjAddr: 0x2A6C, symBinAddr: 0x18454, symSize: 0xC0 }
  - { offsetInCU: 0x1B52A, offset: 0xFAA29, size: 0x8, addend: 0x0, symName: __ZN9_VampHost4Vamp7HostExt22PluginBufferingAdapter12setParameterENSt3__112basic_stringIcNS3_11char_traitsIcEENS3_9allocatorIcEEEEf, symObjAddr: 0x8EC, symBinAddr: 0x16AF0, symSize: 0x74 }
  - { offsetInCU: 0x1B805, offset: 0xFAD04, size: 0x8, addend: 0x0, symName: __ZN9_VampHost4Vamp7HostExt22PluginBufferingAdapter4Impl12setParameterENSt3__112basic_stringIcNS4_11char_traitsIcEENS4_9allocatorIcEEEEf, symObjAddr: 0x960, symBinAddr: 0x16B64, symSize: 0xC8 }
  - { offsetInCU: 0x1BC15, offset: 0xFB114, size: 0x8, addend: 0x0, symName: __ZN9_VampHost4Vamp7HostExt22PluginBufferingAdapter13selectProgramENSt3__112basic_stringIcNS3_11char_traitsIcEENS3_9allocatorIcEEEE, symObjAddr: 0xA28, symBinAddr: 0x16C2C, symSize: 0x64 }
  - { offsetInCU: 0x1BEDF, offset: 0xFB3DE, size: 0x8, addend: 0x0, symName: __ZN9_VampHost4Vamp7HostExt22PluginBufferingAdapter4Impl13selectProgramENSt3__112basic_stringIcNS4_11char_traitsIcEENS4_9allocatorIcEEEE, symObjAddr: 0xA8C, symBinAddr: 0x16C90, symSize: 0xB8 }
  - { offsetInCU: 0x1C2DE, offset: 0xFB7DD, size: 0x8, addend: 0x0, symName: __ZN9_VampHost4Vamp7HostExt22PluginBufferingAdapter5resetEv, symObjAddr: 0xB44, symBinAddr: 0x16D48, symSize: 0x8 }
  - { offsetInCU: 0x1C316, offset: 0xFB815, size: 0x8, addend: 0x0, symName: __ZN9_VampHost4Vamp7HostExt22PluginBufferingAdapter4Impl5resetEv, symObjAddr: 0xB4C, symBinAddr: 0x16D50, symSize: 0x78 }
  - { offsetInCU: 0x1C46B, offset: 0xFB96A, size: 0x8, addend: 0x0, symName: __ZNSt3__16__treeINS_12__value_typeIiiEENS_19__map_value_compareIiS2_NS_4lessIiEELb1EEENS_9allocatorIS2_EEE7destroyEPNS_11__tree_nodeIS2_PvEE, symObjAddr: 0x2024, symBinAddr: 0x17FF4, symSize: 0x40 }
  - { offsetInCU: 0x1C607, offset: 0xFBB06, size: 0x8, addend: 0x0, symName: __ZN9_VampHost4Vamp7HostExt22PluginBufferingAdapter7processEPKPKfNS0_8RealTimeE, symObjAddr: 0xBC4, symBinAddr: 0x16DC8, symSize: 0x2C }
  - { offsetInCU: 0x1C6CA, offset: 0xFBBC9, size: 0x8, addend: 0x0, symName: __ZN9_VampHost4Vamp7HostExt22PluginBufferingAdapter4Impl7processEPKPKfNS0_8RealTimeE, symObjAddr: 0xBF0, symBinAddr: 0x16DF4, symSize: 0x2CC }
  - { offsetInCU: 0x1CFDD, offset: 0xFC4DC, size: 0x8, addend: 0x0, symName: __ZN9_VampHost4Vamp7HostExt22PluginBufferingAdapter4Impl10RingBuffer5writeEPKfi, symObjAddr: 0x12FC, symBinAddr: 0x17500, symSize: 0xBC }
  - { offsetInCU: 0x1D062, offset: 0xFC561, size: 0x8, addend: 0x0, symName: __ZN9_VampHost4Vamp7HostExt22PluginBufferingAdapter4Impl10RingBuffer5writeEPKfi, symObjAddr: 0x12FC, symBinAddr: 0x17500, symSize: 0xBC }
  - { offsetInCU: 0x1D12C, offset: 0xFC62B, size: 0x8, addend: 0x0, symName: __ZN9_VampHost4Vamp7HostExt22PluginBufferingAdapter4Impl12processBlockERNSt3__13mapIiNS4_6vectorINS0_6Plugin7FeatureENS4_9allocatorIS8_EEEENS4_4lessIiEENS9_INS4_4pairIKiSB_EEEEEE, symObjAddr: 0x13B8, symBinAddr: 0x175BC, symSize: 0x3DC }
  - { offsetInCU: 0x1DAE0, offset: 0xFCFDF, size: 0x8, addend: 0x0, symName: __ZNSt3__16__treeINS_12__value_typeIiNS_6vectorIN9_VampHost4Vamp6Plugin7FeatureENS_9allocatorIS6_EEEEEENS_19__map_value_compareIiSA_NS_4lessIiEELb1EEENS7_ISA_EEE7destroyEPNS_11__tree_nodeISA_PvEE, symObjAddr: 0x1F54, symBinAddr: 0x17F24, symSize: 0x48 }
  - { offsetInCU: 0x1DCBF, offset: 0xFD1BE, size: 0x8, addend: 0x0, symName: __ZN9_VampHost4Vamp7HostExt22PluginBufferingAdapter20getRemainingFeaturesEv, symObjAddr: 0xEBC, symBinAddr: 0x170C0, symSize: 0x8 }
  - { offsetInCU: 0x1DD00, offset: 0xFD1FF, size: 0x8, addend: 0x0, symName: __ZN9_VampHost4Vamp7HostExt22PluginBufferingAdapter4Impl20getRemainingFeaturesEv, symObjAddr: 0xEC4, symBinAddr: 0x170C8, symSize: 0x2B4 }
  - { offsetInCU: 0x1E778, offset: 0xFDC77, size: 0x8, addend: 0x0, symName: __ZN9_VampHost4Vamp7HostExt22PluginBufferingAdapter4Impl10RingBuffer4zeroEi, symObjAddr: 0x18E8, symBinAddr: 0x17AEC, symSize: 0xCC }
  - { offsetInCU: 0x1E899, offset: 0xFDD98, size: 0x8, addend: 0x0, symName: __ZNSt3__16vectorIN9_VampHost4Vamp6Plugin7FeatureENS_9allocatorIS4_EEEC2ERKS7_, symObjAddr: 0x2E28, symBinAddr: 0x18678, symSize: 0xBC }
  - { offsetInCU: 0x1EB20, offset: 0xFE01F, size: 0x8, addend: 0x0, symName: __ZN9_VampHost4Vamp7HostExt22PluginBufferingAdapter4Impl26adjustFixedRateFeatureTimeEiRNS0_6Plugin7FeatureE, symObjAddr: 0x1794, symBinAddr: 0x17998, symSize: 0x154 }
  - { offsetInCU: 0x1ED4F, offset: 0xFE24E, size: 0x8, addend: 0x0, symName: __ZNSt3__16__treeINS_12__value_typeIiNS_6vectorIN9_VampHost4Vamp6Plugin7FeatureENS_9allocatorIS6_EEEEEENS_19__map_value_compareIiSA_NS_4lessIiEELb1EEENS7_ISA_EEE25__emplace_unique_key_argsIiJRKNS_21piecewise_construct_tENS_5tupleIJRKiEEENSL_IJEEEEEENS_4pairINS_15__tree_iteratorISA_PNS_11__tree_nodeISA_PvEElEEbEERKT_DpOT0_, symObjAddr: 0x337C, symBinAddr: 0x18AC4, symSize: 0xE8 }
  - { offsetInCU: 0x1F1F4, offset: 0xFE6F3, size: 0x8, addend: 0x0, symName: __ZNSt3__19allocatorIN9_VampHost4Vamp6Plugin7FeatureEE9constructB7v160006IS4_JRKS4_EEEvPT_DpOT0_, symObjAddr: 0x3614, symBinAddr: 0x18D5C, symSize: 0x80 }
  - { offsetInCU: 0x1F4C2, offset: 0xFE9C1, size: 0x8, addend: 0x0, symName: __ZNSt3__16vectorIN9_VampHost4Vamp6Plugin7FeatureENS_9allocatorIS4_EEE21__push_back_slow_pathIRKS4_EEvOT_, symObjAddr: 0x34FC, symBinAddr: 0x18C44, symSize: 0x118 }
  - { offsetInCU: 0x1F7AA, offset: 0xFECA9, size: 0x8, addend: 0x0, symName: __ZNSt3__16vectorIN9_VampHost4Vamp6Plugin7FeatureENS_9allocatorIS4_EEED2B7v160006Ev, symObjAddr: 0x3344, symBinAddr: 0x18A8C, symSize: 0x38 }
  - { offsetInCU: 0x1FC22, offset: 0xFF121, size: 0x8, addend: 0x0, symName: __ZNSt3__16__treeINS_12__value_typeIibEENS_19__map_value_compareIiS2_NS_4lessIiEELb1EEENS_9allocatorIS2_EEE7destroyEPNS_11__tree_nodeIS2_PvEE, symObjAddr: 0x1FE4, symBinAddr: 0x17FB4, symSize: 0x40 }
  - { offsetInCU: 0x1FDF0, offset: 0xFF2EF, size: 0x8, addend: 0x0, symName: __ZNK9_VampHost4Vamp7HostExt22PluginBufferingAdapter4Impl10RingBuffer4peekEPfi, symObjAddr: 0x19B4, symBinAddr: 0x17BB8, symSize: 0x104 }
  - { offsetInCU: 0x1FF4A, offset: 0xFF449, size: 0x8, addend: 0x0, symName: __ZN9_VampHost4Vamp7HostExt13PluginWrapper10getWrapperINS1_24PluginInputDomainAdapterEEEPT_v, symObjAddr: 0x1AB8, symBinAddr: 0x17CBC, symSize: 0x78 }
  - { offsetInCU: 0x1FF9B, offset: 0xFF49A, size: 0x8, addend: 0x0, symName: __ZN9_VampHost4Vamp7HostExt22PluginBufferingAdapter4Impl10RingBuffer4skipEi, symObjAddr: 0x1B30, symBinAddr: 0x17D34, symSize: 0x50 }
  - { offsetInCU: 0x1FFF4, offset: 0xFF4F3, size: 0x8, addend: 0x0, symName: __ZN9_VampHost4Vamp7HostExt22PluginBufferingAdapter4Impl10RingBuffer4skipEi, symObjAddr: 0x1B30, symBinAddr: 0x17D34, symSize: 0x50 }
  - { offsetInCU: 0x20053, offset: 0xFF552, size: 0x8, addend: 0x0, symName: __ZNSt3__16__treeINS_12__value_typeIiiEENS_19__map_value_compareIiS2_NS_4lessIiEELb1EEENS_9allocatorIS2_EEE25__emplace_unique_key_argsIiJRKNS_21piecewise_construct_tENS_5tupleIJRKiEEENSE_IJEEEEEENS_4pairINS_15__tree_iteratorIS2_PNS_11__tree_nodeIS2_PvEElEEbEERKT_DpOT0_, symObjAddr: 0x2D18, symBinAddr: 0x18568, symSize: 0xBC }
  - { offsetInCU: 0x203D2, offset: 0xFF8D1, size: 0x8, addend: 0x0, symName: __ZN9_VampHost4Vamp7HostExt22PluginBufferingAdapter4Impl10RingBufferD1Ev, symObjAddr: 0x1B90, symBinAddr: 0x17D84, symSize: 0x3C }
  - { offsetInCU: 0x2042D, offset: 0xFF92C, size: 0x8, addend: 0x0, symName: __ZN9_VampHost4Vamp7HostExt22PluginBufferingAdapter4Impl10RingBufferD0Ev, symObjAddr: 0x1BCC, symBinAddr: 0x17DC0, symSize: 0x3C }
  - { offsetInCU: 0x2063D, offset: 0xFFB3C, size: 0x8, addend: 0x0, symName: __ZNSt3__16vectorIN9_VampHost4Vamp6Plugin16OutputDescriptorENS_9allocatorIS4_EEE16__destroy_vectorclB7v160006Ev, symObjAddr: 0x1D98, symBinAddr: 0x17E34, symSize: 0x84 }
  - { offsetInCU: 0x2108C, offset: 0x10058B, size: 0x8, addend: 0x0, symName: __ZNSt3__16vectorIN9_VampHost4Vamp6Plugin16OutputDescriptorENS_9allocatorIS4_EEE13__vdeallocateEv, symObjAddr: 0x239C, symBinAddr: 0x18034, symSize: 0x6C }
  - { offsetInCU: 0x212B3, offset: 0x1007B2, size: 0x8, addend: 0x0, symName: __ZNSt3__16vectorIN9_VampHost4Vamp6Plugin16OutputDescriptorENS_9allocatorIS4_EEE11__vallocateB7v160006Em, symObjAddr: 0x24C4, symBinAddr: 0x1815C, symSize: 0x54 }
  - { offsetInCU: 0x21333, offset: 0x100832, size: 0x8, addend: 0x0, symName: __ZNKSt3__16vectorIN9_VampHost4Vamp6Plugin16OutputDescriptorENS_9allocatorIS4_EEE20__throw_length_errorB7v160006Ev, symObjAddr: 0x2518, symBinAddr: 0x181B0, symSize: 0x14 }
  - { offsetInCU: 0x21347, offset: 0x100846, size: 0x8, addend: 0x0, symName: __ZNSt3__128__exception_guard_exceptionsINS_6vectorIN9_VampHost4Vamp6Plugin16OutputDescriptorENS_9allocatorIS5_EEE16__destroy_vectorEED2B7v160006Ev, symObjAddr: 0x2A38, symBinAddr: 0x18420, symSize: 0x34 }
  - { offsetInCU: 0x2139E, offset: 0x10089D, size: 0x8, addend: 0x0, symName: __ZNKSt3__16vectorIN9_VampHost4Vamp6Plugin16OutputDescriptorENS_9allocatorIS4_EEE20__throw_length_errorB7v160006Ev, symObjAddr: 0x2518, symBinAddr: 0x181B0, symSize: 0x14 }
  - { offsetInCU: 0x213C8, offset: 0x1008C7, size: 0x8, addend: 0x0, symName: __ZNSt3__119__allocate_at_leastB7v160006INS_9allocatorIN9_VampHost4Vamp6Plugin16OutputDescriptorEEEEENS_19__allocation_resultINS_16allocator_traitsIT_E7pointerEEERS9_m, symObjAddr: 0x252C, symBinAddr: 0x181C4, symSize: 0x48 }
  - { offsetInCU: 0x21524, offset: 0x100A23, size: 0x8, addend: 0x0, symName: __ZN9_VampHost4Vamp6Plugin16OutputDescriptorC2ERKS2_, symObjAddr: 0x2614, symBinAddr: 0x182AC, symSize: 0xF0 }
  - { offsetInCU: 0x21A2E, offset: 0x100F2D, size: 0x8, addend: 0x0, symName: __ZNSt3__128__exception_guard_exceptionsINS_29_AllocatorDestroyRangeReverseINS_9allocatorIN9_VampHost4Vamp6Plugin16OutputDescriptorEEEPS6_EEED2B7v160006Ev, symObjAddr: 0x29B4, symBinAddr: 0x1839C, symSize: 0x34 }
  - { offsetInCU: 0x22192, offset: 0x101691, size: 0x8, addend: 0x0, symName: __ZNKSt3__129_AllocatorDestroyRangeReverseINS_9allocatorIN9_VampHost4Vamp6Plugin16OutputDescriptorEEEPS5_EclB7v160006Ev, symObjAddr: 0x29E8, symBinAddr: 0x183D0, symSize: 0x50 }
  - { offsetInCU: 0x2267D, offset: 0x101B7C, size: 0x8, addend: 0x0, symName: __ZNSt3__16__treeINS_12__value_typeIibEENS_19__map_value_compareIiS2_NS_4lessIiEELb1EEENS_9allocatorIS2_EEE16__insert_node_atEPNS_15__tree_end_nodeIPNS_16__tree_node_baseIPvEEEERSE_SE_, symObjAddr: 0x2B2C, symBinAddr: 0x18514, symSize: 0x54 }
  - { offsetInCU: 0x22A83, offset: 0x101F82, size: 0x8, addend: 0x0, symName: __ZNSt3__16__treeINS_12__value_typeIiiEENS_19__map_value_compareIiS2_NS_4lessIiEELb1EEENS_9allocatorIS2_EEE16__insert_node_atEPNS_15__tree_end_nodeIPNS_16__tree_node_baseIPvEEEERSE_SE_, symObjAddr: 0x2DD4, symBinAddr: 0x18624, symSize: 0x54 }
  - { offsetInCU: 0x22C33, offset: 0x102132, size: 0x8, addend: 0x0, symName: __ZNSt3__16vectorIN9_VampHost4Vamp6Plugin7FeatureENS_9allocatorIS4_EEE11__vallocateB7v160006Em, symObjAddr: 0x2EE4, symBinAddr: 0x18734, symSize: 0x54 }
  - { offsetInCU: 0x22CB3, offset: 0x1021B2, size: 0x8, addend: 0x0, symName: __ZNKSt3__16vectorIN9_VampHost4Vamp6Plugin7FeatureENS_9allocatorIS4_EEE20__throw_length_errorB7v160006Ev, symObjAddr: 0x2F38, symBinAddr: 0x18788, symSize: 0x14 }
  - { offsetInCU: 0x22CC7, offset: 0x1021C6, size: 0x8, addend: 0x0, symName: __ZNSt3__128__exception_guard_exceptionsINS_6vectorIN9_VampHost4Vamp6Plugin7FeatureENS_9allocatorIS5_EEE16__destroy_vectorEED2B7v160006Ev, symObjAddr: 0x328C, symBinAddr: 0x189D4, symSize: 0x34 }
  - { offsetInCU: 0x22D1E, offset: 0x10221D, size: 0x8, addend: 0x0, symName: __ZNKSt3__16vectorIN9_VampHost4Vamp6Plugin7FeatureENS_9allocatorIS4_EEE20__throw_length_errorB7v160006Ev, symObjAddr: 0x2F38, symBinAddr: 0x18788, symSize: 0x14 }
  - { offsetInCU: 0x22D48, offset: 0x102247, size: 0x8, addend: 0x0, symName: __ZNSt3__119__allocate_at_leastB7v160006INS_9allocatorIN9_VampHost4Vamp6Plugin7FeatureEEEEENS_19__allocation_resultINS_16allocator_traitsIT_E7pointerEEERS9_m, symObjAddr: 0x2F4C, symBinAddr: 0x1879C, symSize: 0x48 }
  - { offsetInCU: 0x22E43, offset: 0x102342, size: 0x8, addend: 0x0, symName: __ZNSt3__19allocatorIN9_VampHost4Vamp6Plugin7FeatureEE9constructB7v160006IS4_JRS4_EEEvPT_DpOT0_, symObjAddr: 0x303C, symBinAddr: 0x1888C, symSize: 0x80 }
  - { offsetInCU: 0x23111, offset: 0x102610, size: 0x8, addend: 0x0, symName: __ZNSt3__128__exception_guard_exceptionsINS_29_AllocatorDestroyRangeReverseINS_9allocatorIN9_VampHost4Vamp6Plugin7FeatureEEEPS6_EEED2B7v160006Ev, symObjAddr: 0x31C4, symBinAddr: 0x1890C, symSize: 0x34 }
  - { offsetInCU: 0x2376B, offset: 0x102C6A, size: 0x8, addend: 0x0, symName: __ZNKSt3__129_AllocatorDestroyRangeReverseINS_9allocatorIN9_VampHost4Vamp6Plugin7FeatureEEEPS5_EclB7v160006Ev, symObjAddr: 0x31F8, symBinAddr: 0x18940, symSize: 0x50 }
  - { offsetInCU: 0x238F1, offset: 0x102DF0, size: 0x8, addend: 0x0, symName: __ZNSt3__19allocatorIN9_VampHost4Vamp6Plugin7FeatureEE7destroyB7v160006EPS4_, symObjAddr: 0x3248, symBinAddr: 0x18990, symSize: 0x44 }
  - { offsetInCU: 0x23C24, offset: 0x103123, size: 0x8, addend: 0x0, symName: __ZNSt3__16vectorIN9_VampHost4Vamp6Plugin7FeatureENS_9allocatorIS4_EEE16__destroy_vectorclB7v160006Ev, symObjAddr: 0x32C0, symBinAddr: 0x18A08, symSize: 0x84 }
  - { offsetInCU: 0x243B4, offset: 0x1038B3, size: 0x8, addend: 0x0, symName: __ZNSt3__16__treeINS_12__value_typeIiNS_6vectorIN9_VampHost4Vamp6Plugin7FeatureENS_9allocatorIS6_EEEEEENS_19__map_value_compareIiSA_NS_4lessIiEELb1EEENS7_ISA_EEE16__insert_node_atEPNS_15__tree_end_nodeIPNS_16__tree_node_baseIPvEEEERSL_SL_, symObjAddr: 0x3464, symBinAddr: 0x18BAC, symSize: 0x54 }
  - { offsetInCU: 0x2441E, offset: 0x10391D, size: 0x8, addend: 0x0, symName: __ZNSt3__110unique_ptrINS_11__tree_nodeINS_12__value_typeIiNS_6vectorIN9_VampHost4Vamp6Plugin7FeatureENS_9allocatorIS7_EEEEEEPvEENS_22__tree_node_destructorINS8_ISD_EEEEE5resetB7v160006EPSD_, symObjAddr: 0x34B8, symBinAddr: 0x18C00, symSize: 0x44 }
  - { offsetInCU: 0x247EE, offset: 0x103CED, size: 0x8, addend: 0x0, symName: __ZNSt3__114__split_bufferIN9_VampHost4Vamp6Plugin7FeatureERNS_9allocatorIS4_EEED2Ev, symObjAddr: 0x3854, symBinAddr: 0x18F9C, symSize: 0x30 }
  - { offsetInCU: 0x24987, offset: 0x103E86, size: 0x8, addend: 0x0, symName: __ZNSt3__128__exception_guard_exceptionsINS_29_AllocatorDestroyRangeReverseINS_9allocatorIN9_VampHost4Vamp6Plugin7FeatureEEENS_16reverse_iteratorIPS6_EEEEED2B7v160006Ev, symObjAddr: 0x37D0, symBinAddr: 0x18F18, symSize: 0x34 }
  - { offsetInCU: 0x249C8, offset: 0x103EC7, size: 0x8, addend: 0x0, symName: __ZNKSt3__129_AllocatorDestroyRangeReverseINS_9allocatorIN9_VampHost4Vamp6Plugin7FeatureEEENS_16reverse_iteratorIPS5_EEEclB7v160006Ev, symObjAddr: 0x3804, symBinAddr: 0x18F4C, symSize: 0x50 }
  - { offsetInCU: 0x24AA9, offset: 0x103FA8, size: 0x8, addend: 0x0, symName: __ZNSt3__114__split_bufferIN9_VampHost4Vamp6Plugin7FeatureERNS_9allocatorIS4_EEE5clearB7v160006Ev, symObjAddr: 0x3884, symBinAddr: 0x18FCC, symSize: 0x44 }
  - { offsetInCU: 0x5F, offset: 0x1041BF, size: 0x8, addend: 0x0, symName: __ZNSt3__1L19piecewise_constructE, symObjAddr: 0x3C74, symBinAddr: 0x2BB1B, symSize: 0x0 }
  - { offsetInCU: 0xC963, offset: 0x110AC3, size: 0x8, addend: 0x0, symName: __ZNSt3__119__allocate_at_leastB7v160006INS_9allocatorIN9_VampHost4Vamp10PluginBase19ParameterDescriptorEEEEENS_19__allocation_resultINS_16allocator_traitsIT_E7pointerEEERS9_m, symObjAddr: 0x2600, symBinAddr: 0x1AE94, symSize: 0x48 }
  - { offsetInCU: 0xCA0B, offset: 0x110B6B, size: 0x8, addend: 0x0, symName: __ZNSt3__142__uninitialized_allocator_move_if_noexceptB7v160006INS_9allocatorIN9_VampHost4Vamp10PluginBase19ParameterDescriptorEEENS_16reverse_iteratorIPS5_EES9_S9_EET2_RT_T0_T1_SA_, symObjAddr: 0x2648, symBinAddr: 0x1AEDC, symSize: 0x120 }
  - { offsetInCU: 0xCAD5, offset: 0x110C35, size: 0x8, addend: 0x0, symName: __ZNSt3__142__uninitialized_allocator_move_if_noexceptB7v160006INS_9allocatorIN9_VampHost4Vamp6Plugin16OutputDescriptorEEENS_16reverse_iteratorIPS5_EES9_S9_EET2_RT_T0_T1_SA_, symObjAddr: 0x2B48, symBinAddr: 0x1B168, symSize: 0x128 }
  - { offsetInCU: 0xCD98, offset: 0x110EF8, size: 0x8, addend: 0x0, symName: __ZNSt3__16__treeINS_12__value_typeIiNS_6vectorIN9_VampHost4Vamp6Plugin7FeatureENS_9allocatorIS6_EEEEEENS_19__map_value_compareIiSA_NS_4lessIiEELb1EEENS7_ISA_EEE25__emplace_unique_key_argsIiJRKNS_21piecewise_construct_tENS_5tupleIJOiEEENSL_IJEEEEEENS_4pairINS_15__tree_iteratorISA_PNS_11__tree_nodeISA_PvEElEEbEERKT_DpOT0_, symObjAddr: 0x2EF8, symBinAddr: 0x1B388, symSize: 0xE8 }
  - { offsetInCU: 0xD5A2, offset: 0x111702, size: 0x8, addend: 0x0, symName: __ZNSt3__142__uninitialized_allocator_move_if_noexceptB7v160006INS_9allocatorIN9_VampHost4Vamp10PluginBase19ParameterDescriptorEEENS_16reverse_iteratorIPS5_EES9_S9_EET2_RT_T0_T1_SA_, symObjAddr: 0x2648, symBinAddr: 0x1AEDC, symSize: 0x120 }
  - { offsetInCU: 0xDA23, offset: 0x111B83, size: 0x8, addend: 0x0, symName: __ZNSt3__142__uninitialized_allocator_move_if_noexceptB7v160006INS_9allocatorIN9_VampHost4Vamp6Plugin16OutputDescriptorEEENS_16reverse_iteratorIPS5_EES9_S9_EET2_RT_T0_T1_SA_, symObjAddr: 0x2B48, symBinAddr: 0x1B168, symSize: 0x128 }
  - { offsetInCU: 0xFB16, offset: 0x113C76, size: 0x8, addend: 0x0, symName: __ZNSt3__16vectorIN9_VampHost4Vamp10PluginBase19ParameterDescriptorENS_9allocatorIS4_EEE26__swap_out_circular_bufferERNS_14__split_bufferIS4_RS6_EE, symObjAddr: 0x2578, symBinAddr: 0x1AE0C, symSize: 0x74 }
  - { offsetInCU: 0xFC76, offset: 0x113DD6, size: 0x8, addend: 0x0, symName: __ZNSt3__16vectorIN9_VampHost4Vamp6Plugin16OutputDescriptorENS_9allocatorIS4_EEE26__swap_out_circular_bufferERNS_14__split_bufferIS4_RS6_EE, symObjAddr: 0x2A78, symBinAddr: 0x1B0F4, symSize: 0x74 }
  - { offsetInCU: 0x121F0, offset: 0x116350, size: 0x8, addend: 0x0, symName: __ZN9_VampHost4Vamp17PluginHostAdapterC2EPK21_VampPluginDescriptorf, symObjAddr: 0x0, symBinAddr: 0x19010, symSize: 0x44 }
  - { offsetInCU: 0x122A6, offset: 0x116406, size: 0x8, addend: 0x0, symName: __ZN9_VampHost4Vamp17PluginHostAdapterC1EPK21_VampPluginDescriptorf, symObjAddr: 0x44, symBinAddr: 0x19054, symSize: 0x44 }
  - { offsetInCU: 0x1236B, offset: 0x1164CB, size: 0x8, addend: 0x0, symName: __ZN9_VampHost4Vamp17PluginHostAdapterD2Ev, symObjAddr: 0x88, symBinAddr: 0x19098, symSize: 0x44 }
  - { offsetInCU: 0x123B6, offset: 0x116516, size: 0x8, addend: 0x0, symName: __ZN9_VampHost4Vamp17PluginHostAdapterD1Ev, symObjAddr: 0xD8, symBinAddr: 0x190DC, symSize: 0x44 }
  - { offsetInCU: 0x12419, offset: 0x116579, size: 0x8, addend: 0x0, symName: __ZN9_VampHost4Vamp17PluginHostAdapterD0Ev, symObjAddr: 0x11C, symBinAddr: 0x19120, symSize: 0x44 }
  - { offsetInCU: 0x12B62, offset: 0x116CC2, size: 0x8, addend: 0x0, symName: __ZN9_VampHost4Vamp17PluginHostAdapter13getPluginPathEv, symObjAddr: 0x160, symBinAddr: 0x19164, symSize: 0x544 }
  - { offsetInCU: 0x147DB, offset: 0x11893B, size: 0x8, addend: 0x0, symName: __ZN9_VampHost4Vamp17PluginHostAdapter10initialiseEmmm, symObjAddr: 0x6A4, symBinAddr: 0x196A8, symSize: 0x30 }
  - { offsetInCU: 0x14840, offset: 0x1189A0, size: 0x8, addend: 0x0, symName: __ZN9_VampHost4Vamp17PluginHostAdapter5resetEv, symObjAddr: 0x6D4, symBinAddr: 0x196D8, symSize: 0x1C }
  - { offsetInCU: 0x14875, offset: 0x1189D5, size: 0x8, addend: 0x0, symName: __ZNK9_VampHost4Vamp17PluginHostAdapter14getInputDomainEv, symObjAddr: 0x6F0, symBinAddr: 0x196F4, symSize: 0x14 }
  - { offsetInCU: 0x1489E, offset: 0x1189FE, size: 0x8, addend: 0x0, symName: __ZNK9_VampHost4Vamp17PluginHostAdapter17getVampApiVersionEv, symObjAddr: 0x704, symBinAddr: 0x19708, symSize: 0xC }
  - { offsetInCU: 0x148C7, offset: 0x118A27, size: 0x8, addend: 0x0, symName: __ZNK9_VampHost4Vamp17PluginHostAdapter13getIdentifierEv, symObjAddr: 0x710, symBinAddr: 0x19714, symSize: 0x10 }
  - { offsetInCU: 0x1492D, offset: 0x118A8D, size: 0x8, addend: 0x0, symName: __ZNK9_VampHost4Vamp17PluginHostAdapter7getNameEv, symObjAddr: 0x720, symBinAddr: 0x19724, symSize: 0x10 }
  - { offsetInCU: 0x14993, offset: 0x118AF3, size: 0x8, addend: 0x0, symName: __ZNK9_VampHost4Vamp17PluginHostAdapter14getDescriptionEv, symObjAddr: 0x730, symBinAddr: 0x19734, symSize: 0x10 }
  - { offsetInCU: 0x149F9, offset: 0x118B59, size: 0x8, addend: 0x0, symName: __ZNK9_VampHost4Vamp17PluginHostAdapter8getMakerEv, symObjAddr: 0x740, symBinAddr: 0x19744, symSize: 0x10 }
  - { offsetInCU: 0x14A5F, offset: 0x118BBF, size: 0x8, addend: 0x0, symName: __ZNK9_VampHost4Vamp17PluginHostAdapter16getPluginVersionEv, symObjAddr: 0x750, symBinAddr: 0x19754, symSize: 0xC }
  - { offsetInCU: 0x14A88, offset: 0x118BE8, size: 0x8, addend: 0x0, symName: __ZNK9_VampHost4Vamp17PluginHostAdapter12getCopyrightEv, symObjAddr: 0x75C, symBinAddr: 0x19760, symSize: 0x10 }
  - { offsetInCU: 0x14BAD, offset: 0x118D0D, size: 0x8, addend: 0x0, symName: __ZNK9_VampHost4Vamp17PluginHostAdapter23getParameterDescriptorsEv, symObjAddr: 0x76C, symBinAddr: 0x19770, symSize: 0x2D8 }
  - { offsetInCU: 0x15B0C, offset: 0x119C6C, size: 0x8, addend: 0x0, symName: __ZNSt3__16vectorIN9_VampHost4Vamp10PluginBase19ParameterDescriptorENS_9allocatorIS4_EEE9push_backB7v160006ERKS4_, symObjAddr: 0xA44, symBinAddr: 0x19A48, symSize: 0x130 }
  - { offsetInCU: 0x15F3D, offset: 0x11A09D, size: 0x8, addend: 0x0, symName: __ZN9_VampHost4Vamp10PluginBase19ParameterDescriptorD1Ev, symObjAddr: 0xB74, symBinAddr: 0x19B78, symSize: 0x68 }
  - { offsetInCU: 0x16484, offset: 0x11A5E4, size: 0x8, addend: 0x0, symName: __ZNSt3__16vectorIN9_VampHost4Vamp10PluginBase19ParameterDescriptorENS_9allocatorIS4_EEED2B7v160006Ev, symObjAddr: 0x1CD4, symBinAddr: 0x1ABFC, symSize: 0x38 }
  - { offsetInCU: 0x16872, offset: 0x11A9D2, size: 0x8, addend: 0x0, symName: __ZN9_VampHost4Vamp10PluginBase19ParameterDescriptorC2ERKS2_, symObjAddr: 0x2238, symBinAddr: 0x1AD24, symSize: 0xE8 }
  - { offsetInCU: 0x16D7C, offset: 0x11AEDC, size: 0x8, addend: 0x0, symName: __ZNSt3__114__split_bufferIN9_VampHost4Vamp10PluginBase19ParameterDescriptorERNS_9allocatorIS4_EEED2Ev, symObjAddr: 0x27EC, symBinAddr: 0x1B080, symSize: 0x30 }
  - { offsetInCU: 0x16E79, offset: 0x11AFD9, size: 0x8, addend: 0x0, symName: __ZNKSt3__16vectorIN9_VampHost4Vamp10PluginBase19ParameterDescriptorENS_9allocatorIS4_EEE20__throw_length_errorB7v160006Ev, symObjAddr: 0x25EC, symBinAddr: 0x1AE80, symSize: 0x14 }
  - { offsetInCU: 0x16EA2, offset: 0x11B002, size: 0x8, addend: 0x0, symName: __ZNSt3__119__allocate_at_leastB7v160006INS_9allocatorIN9_VampHost4Vamp10PluginBase19ParameterDescriptorEEEEENS_19__allocation_resultINS_16allocator_traitsIT_E7pointerEEERS9_m, symObjAddr: 0x2600, symBinAddr: 0x1AE94, symSize: 0x48 }
  - { offsetInCU: 0x16F4B, offset: 0x11B0AB, size: 0x8, addend: 0x0, symName: __ZNK9_VampHost4Vamp17PluginHostAdapter12getParameterENSt3__112basic_stringIcNS2_11char_traitsIcEENS2_9allocatorIcEEEE, symObjAddr: 0xBDC, symBinAddr: 0x19BE0, symSize: 0xEC }
  - { offsetInCU: 0x1719D, offset: 0x11B2FD, size: 0x8, addend: 0x0, symName: __ZN9_VampHost4Vamp17PluginHostAdapter12setParameterENSt3__112basic_stringIcNS2_11char_traitsIcEENS2_9allocatorIcEEEEf, symObjAddr: 0xCC8, symBinAddr: 0x19CCC, symSize: 0xFC }
  - { offsetInCU: 0x173DC, offset: 0x11B53C, size: 0x8, addend: 0x0, symName: __ZNK9_VampHost4Vamp17PluginHostAdapter11getProgramsEv, symObjAddr: 0xDC4, symBinAddr: 0x19DC8, symSize: 0x1BC }
  - { offsetInCU: 0x17B97, offset: 0x11BCF7, size: 0x8, addend: 0x0, symName: __ZNK9_VampHost4Vamp17PluginHostAdapter17getCurrentProgramEv, symObjAddr: 0xF80, symBinAddr: 0x19F84, symSize: 0x5C }
  - { offsetInCU: 0x17BF4, offset: 0x11BD54, size: 0x8, addend: 0x0, symName: __ZN9_VampHost4Vamp17PluginHostAdapter13selectProgramENSt3__112basic_stringIcNS2_11char_traitsIcEENS2_9allocatorIcEEEE, symObjAddr: 0xFDC, symBinAddr: 0x19FE0, symSize: 0xE4 }
  - { offsetInCU: 0x17E27, offset: 0x11BF87, size: 0x8, addend: 0x0, symName: __ZNK9_VampHost4Vamp17PluginHostAdapter20getPreferredStepSizeEv, symObjAddr: 0x10C0, symBinAddr: 0x1A0C4, symSize: 0x2C }
  - { offsetInCU: 0x17E5D, offset: 0x11BFBD, size: 0x8, addend: 0x0, symName: __ZNK9_VampHost4Vamp17PluginHostAdapter21getPreferredBlockSizeEv, symObjAddr: 0x10EC, symBinAddr: 0x1A0F0, symSize: 0x2C }
  - { offsetInCU: 0x17E93, offset: 0x11BFF3, size: 0x8, addend: 0x0, symName: __ZNK9_VampHost4Vamp17PluginHostAdapter18getMinChannelCountEv, symObjAddr: 0x1118, symBinAddr: 0x1A11C, symSize: 0x2C }
  - { offsetInCU: 0x17EC9, offset: 0x11C029, size: 0x8, addend: 0x0, symName: __ZNK9_VampHost4Vamp17PluginHostAdapter18getMaxChannelCountEv, symObjAddr: 0x1144, symBinAddr: 0x1A148, symSize: 0x2C }
  - { offsetInCU: 0x17FBE, offset: 0x11C11E, size: 0x8, addend: 0x0, symName: __ZNK9_VampHost4Vamp17PluginHostAdapter20getOutputDescriptorsEv, symObjAddr: 0x1170, symBinAddr: 0x1A174, symSize: 0x3B8 }
  - { offsetInCU: 0x18F4D, offset: 0x11D0AD, size: 0x8, addend: 0x0, symName: __ZNSt3__16vectorIN9_VampHost4Vamp6Plugin16OutputDescriptorENS_9allocatorIS4_EEE9push_backB7v160006ERKS4_, symObjAddr: 0x1528, symBinAddr: 0x1A52C, symSize: 0x130 }
  - { offsetInCU: 0x1937E, offset: 0x11D4DE, size: 0x8, addend: 0x0, symName: __ZN9_VampHost4Vamp6Plugin16OutputDescriptorD1Ev, symObjAddr: 0x1658, symBinAddr: 0x1A65C, symSize: 0x68 }
  - { offsetInCU: 0x19F44, offset: 0x11E0A4, size: 0x8, addend: 0x0, symName: __ZNSt3__114__split_bufferIN9_VampHost4Vamp6Plugin16OutputDescriptorERNS_9allocatorIS4_EEED2Ev, symObjAddr: 0x2CF4, symBinAddr: 0x1B314, symSize: 0x30 }
  - { offsetInCU: 0x1A239, offset: 0x11E399, size: 0x8, addend: 0x0, symName: __ZN9_VampHost4Vamp17PluginHostAdapter7processEPKPKfNS0_8RealTimeE, symObjAddr: 0x16C0, symBinAddr: 0x1A6C4, symSize: 0x8C }
  - { offsetInCU: 0x1A49B, offset: 0x11E5FB, size: 0x8, addend: 0x0, symName: __ZN9_VampHost4Vamp17PluginHostAdapter15convertFeaturesEP16_VampFeatureListRNSt3__13mapIiNS4_6vectorINS0_6Plugin7FeatureENS4_9allocatorIS8_EEEENS4_4lessIiEENS9_INS4_4pairIKiSB_EEEEEE, symObjAddr: 0x174C, symBinAddr: 0x1A750, symSize: 0x354 }
  - { offsetInCU: 0x1B7E2, offset: 0x11F942, size: 0x8, addend: 0x0, symName: __ZNSt3__16vectorIfNS_9allocatorIfEEE7reserveEm, symObjAddr: 0x1B24, symBinAddr: 0x1AB28, symSize: 0x94 }
  - { offsetInCU: 0x1BAD1, offset: 0x11FC31, size: 0x8, addend: 0x0, symName: __ZN9_VampHost4Vamp6Plugin7FeatureD1Ev, symObjAddr: 0x1BB8, symBinAddr: 0x1ABBC, symSize: 0x40 }
  - { offsetInCU: 0x1BAF7, offset: 0x11FC57, size: 0x8, addend: 0x0, symName: __ZNSt3__16__treeINS_12__value_typeIiNS_6vectorIN9_VampHost4Vamp6Plugin7FeatureENS_9allocatorIS6_EEEEEENS_19__map_value_compareIiSA_NS_4lessIiEELb1EEENS7_ISA_EEE25__emplace_unique_key_argsIiJRKNS_21piecewise_construct_tENS_5tupleIJOiEEENSL_IJEEEEEENS_4pairINS_15__tree_iteratorISA_PNS_11__tree_nodeISA_PvEElEEbEERKT_DpOT0_, symObjAddr: 0x2EF8, symBinAddr: 0x1B388, symSize: 0xE8 }
  - { offsetInCU: 0x1C350, offset: 0x1204B0, size: 0x8, addend: 0x0, symName: __ZN9_VampHost4Vamp6Plugin7FeatureD1Ev, symObjAddr: 0x1BB8, symBinAddr: 0x1ABBC, symSize: 0x40 }
  - { offsetInCU: 0x1C61F, offset: 0x12077F, size: 0x8, addend: 0x0, symName: __ZN9_VampHost4Vamp17PluginHostAdapter20getRemainingFeaturesEv, symObjAddr: 0x1AA0, symBinAddr: 0x1AAA4, symSize: 0x84 }
  - { offsetInCU: 0x1CB76, offset: 0x120CD6, size: 0x8, addend: 0x0, symName: __ZNSt3__16vectorIN9_VampHost4Vamp10PluginBase19ParameterDescriptorENS_9allocatorIS4_EEE16__destroy_vectorclB7v160006Ev, symObjAddr: 0x1D0C, symBinAddr: 0x1AC34, symSize: 0x84 }
  - { offsetInCU: 0x1CDB1, offset: 0x120F11, size: 0x8, addend: 0x0, symName: __ZNSt3__19allocatorIN9_VampHost4Vamp10PluginBase19ParameterDescriptorEE7destroyB7v160006EPS4_, symObjAddr: 0x1D90, symBinAddr: 0x1ACB8, symSize: 0x6C }
  - { offsetInCU: 0x1E0B6, offset: 0x122216, size: 0x8, addend: 0x0, symName: __ZNSt3__128__exception_guard_exceptionsINS_29_AllocatorDestroyRangeReverseINS_9allocatorIN9_VampHost4Vamp10PluginBase19ParameterDescriptorEEENS_16reverse_iteratorIPS6_EEEEED2B7v160006Ev, symObjAddr: 0x2768, symBinAddr: 0x1AFFC, symSize: 0x34 }
  - { offsetInCU: 0x1E0F7, offset: 0x122257, size: 0x8, addend: 0x0, symName: __ZNKSt3__129_AllocatorDestroyRangeReverseINS_9allocatorIN9_VampHost4Vamp10PluginBase19ParameterDescriptorEEENS_16reverse_iteratorIPS5_EEEclB7v160006Ev, symObjAddr: 0x279C, symBinAddr: 0x1B030, symSize: 0x50 }
  - { offsetInCU: 0x1E1D8, offset: 0x122338, size: 0x8, addend: 0x0, symName: __ZNSt3__114__split_bufferIN9_VampHost4Vamp10PluginBase19ParameterDescriptorERNS_9allocatorIS4_EEE5clearB7v160006Ev, symObjAddr: 0x281C, symBinAddr: 0x1B0B0, symSize: 0x44 }
  - { offsetInCU: 0x1E9FC, offset: 0x122B5C, size: 0x8, addend: 0x0, symName: __ZNSt3__128__exception_guard_exceptionsINS_29_AllocatorDestroyRangeReverseINS_9allocatorIN9_VampHost4Vamp6Plugin16OutputDescriptorEEENS_16reverse_iteratorIPS6_EEEEED2B7v160006Ev, symObjAddr: 0x2C70, symBinAddr: 0x1B290, symSize: 0x34 }
  - { offsetInCU: 0x1EA3D, offset: 0x122B9D, size: 0x8, addend: 0x0, symName: __ZNKSt3__129_AllocatorDestroyRangeReverseINS_9allocatorIN9_VampHost4Vamp6Plugin16OutputDescriptorEEENS_16reverse_iteratorIPS5_EEEclB7v160006Ev, symObjAddr: 0x2CA4, symBinAddr: 0x1B2C4, symSize: 0x50 }
  - { offsetInCU: 0x1EB1E, offset: 0x122C7E, size: 0x8, addend: 0x0, symName: __ZNSt3__114__split_bufferIN9_VampHost4Vamp6Plugin16OutputDescriptorERNS_9allocatorIS4_EEE5clearB7v160006Ev, symObjAddr: 0x2D24, symBinAddr: 0x1B344, symSize: 0x44 }
  - { offsetInCU: 0xE90, offset: 0x125382, size: 0x8, addend: 0x0, symName: __ZN9_VampHost4Kiss19vamp_kiss_fft_allocEiiPvPm, symObjAddr: 0x0, symBinAddr: 0x1B470, symSize: 0x128 }
  - { offsetInCU: 0xF5F, offset: 0x125451, size: 0x8, addend: 0x0, symName: __ZN9_VampHost4Kiss18vamp_kiss_fft_freeEPv, symObjAddr: 0x128, symBinAddr: 0x1B598, symSize: 0x4 }
  - { offsetInCU: 0xF8A, offset: 0x12547C, size: 0x8, addend: 0x0, symName: __ZN9_VampHost4Kiss20vamp_kiss_fft_strideEPNS0_19vamp_kiss_fft_stateEPKNS0_17vamp_kiss_fft_cpxEPS3_i, symObjAddr: 0x12C, symBinAddr: 0x1B59C, symSize: 0x9C }
  - { offsetInCU: 0x106C, offset: 0x12555E, size: 0x8, addend: 0x0, symName: __ZN9_VampHost4KissL7kf_workEPNS0_17vamp_kiss_fft_cpxEPKS1_miPiPNS0_19vamp_kiss_fft_stateE, symObjAddr: 0x1C8, symBinAddr: 0x1B638, symSize: 0x684 }
  - { offsetInCU: 0x16D8, offset: 0x125BCA, size: 0x8, addend: 0x0, symName: __ZN9_VampHost4Kiss13vamp_kiss_fftEPNS0_19vamp_kiss_fft_stateEPKNS0_17vamp_kiss_fft_cpxEPS3_, symObjAddr: 0x84C, symBinAddr: 0x1BCBC, symSize: 0x8 }
  - { offsetInCU: 0x1732, offset: 0x125C24, size: 0x8, addend: 0x0, symName: __ZN9_VampHost4Kiss21vamp_kiss_fft_cleanupEv, symObjAddr: 0x854, symBinAddr: 0x1BCC4, symSize: 0x4 }
  - { offsetInCU: 0x174D, offset: 0x125C3F, size: 0x8, addend: 0x0, symName: __ZN9_VampHost4Kiss28vamp_kiss_fft_next_fast_sizeEi, symObjAddr: 0x858, symBinAddr: 0x1BCC8, symSize: 0xC8 }
  - { offsetInCU: 0x182C, offset: 0x125D1E, size: 0x8, addend: 0x0, symName: __ZN9_VampHost4Kiss20vamp_kiss_fftr_allocEiiPvPm, symObjAddr: 0x920, symBinAddr: 0x1BD90, symSize: 0x164 }
  - { offsetInCU: 0x195D, offset: 0x125E4F, size: 0x8, addend: 0x0, symName: __ZN9_VampHost4Kiss19vamp_kiss_fftr_freeEPv, symObjAddr: 0xA84, symBinAddr: 0x1BEF4, symSize: 0x4 }
  - { offsetInCU: 0x19B0, offset: 0x125EA2, size: 0x8, addend: 0x0, symName: __ZN9_VampHost4Kiss14vamp_kiss_fftrEPNS0_20vamp_kiss_fftr_stateEPKdPNS0_17vamp_kiss_fft_cpxE, symObjAddr: 0xA88, symBinAddr: 0x1BEF8, symSize: 0x130 }
  - { offsetInCU: 0x1ABE, offset: 0x125FB0, size: 0x8, addend: 0x0, symName: __ZN9_VampHost4Kiss15vamp_kiss_fftriEPNS0_20vamp_kiss_fftr_stateEPKNS0_17vamp_kiss_fft_cpxEPd, symObjAddr: 0xBB8, symBinAddr: 0x1C028, symSize: 0x108 }
  - { offsetInCU: 0xCC86, offset: 0x131178, size: 0x8, addend: 0x0, symName: __ZN9_VampHost4Vamp7HostExt24PluginInputDomainAdapterC2EPNS0_6PluginE, symObjAddr: 0xCC0, symBinAddr: 0x1C130, symSize: 0x80 }
  - { offsetInCU: 0xCD23, offset: 0x131215, size: 0x8, addend: 0x0, symName: __ZN9_VampHost4Vamp7HostExt24PluginInputDomainAdapter4ImplC1EPNS0_6PluginEf, symObjAddr: 0xD40, symBinAddr: 0x1C1B0, symSize: 0x2C }
  - { offsetInCU: 0xCD58, offset: 0x13124A, size: 0x8, addend: 0x0, symName: __ZN9_VampHost4Vamp7HostExt24PluginInputDomainAdapter4ImplC1EPNS0_6PluginEf, symObjAddr: 0xD40, symBinAddr: 0x1C1B0, symSize: 0x2C }
  - { offsetInCU: 0xCD86, offset: 0x131278, size: 0x8, addend: 0x0, symName: __ZN9_VampHost4Vamp7HostExt24PluginInputDomainAdapterC1EPNS0_6PluginE, symObjAddr: 0xD6C, symBinAddr: 0x1C1DC, symSize: 0x4 }
  - { offsetInCU: 0xCDC1, offset: 0x1312B3, size: 0x8, addend: 0x0, symName: __ZN9_VampHost4Vamp7HostExt24PluginInputDomainAdapterC1EPNS0_6PluginE, symObjAddr: 0xD6C, symBinAddr: 0x1C1DC, symSize: 0x4 }
  - { offsetInCU: 0xCDF9, offset: 0x1312EB, size: 0x8, addend: 0x0, symName: __ZN9_VampHost4Vamp7HostExt24PluginInputDomainAdapterD2Ev, symObjAddr: 0xD70, symBinAddr: 0x1C1E0, symSize: 0x3C }
  - { offsetInCU: 0xCE52, offset: 0x131344, size: 0x8, addend: 0x0, symName: __ZN9_VampHost4Vamp7HostExt24PluginInputDomainAdapter4ImplD2Ev, symObjAddr: 0x14A8, symBinAddr: 0x1C918, symSize: 0xE0 }
  - { offsetInCU: 0xCEE4, offset: 0x1313D6, size: 0x8, addend: 0x0, symName: __ZN9_VampHost4Vamp7HostExt24PluginInputDomainAdapter4ImplD1Ev, symObjAddr: 0xDAC, symBinAddr: 0x1C21C, symSize: 0x4 }
  - { offsetInCU: 0xCF07, offset: 0x1313F9, size: 0x8, addend: 0x0, symName: __ZN9_VampHost4Vamp7HostExt24PluginInputDomainAdapter4ImplD1Ev, symObjAddr: 0xDAC, symBinAddr: 0x1C21C, symSize: 0x4 }
  - { offsetInCU: 0xCF1C, offset: 0x13140E, size: 0x8, addend: 0x0, symName: __ZN9_VampHost4Vamp7HostExt24PluginInputDomainAdapterD1Ev, symObjAddr: 0xDB0, symBinAddr: 0x1C220, symSize: 0x4 }
  - { offsetInCU: 0xCF3F, offset: 0x131431, size: 0x8, addend: 0x0, symName: __ZN9_VampHost4Vamp7HostExt24PluginInputDomainAdapterD1Ev, symObjAddr: 0xDB0, symBinAddr: 0x1C220, symSize: 0x4 }
  - { offsetInCU: 0xCF75, offset: 0x131467, size: 0x8, addend: 0x0, symName: __ZN9_VampHost4Vamp7HostExt24PluginInputDomainAdapterD0Ev, symObjAddr: 0xDB4, symBinAddr: 0x1C224, symSize: 0x14 }
  - { offsetInCU: 0xCFD5, offset: 0x1314C7, size: 0x8, addend: 0x0, symName: __ZN9_VampHost4Vamp7HostExt24PluginInputDomainAdapter10initialiseEmmm, symObjAddr: 0xDC8, symBinAddr: 0x1C238, symSize: 0x8 }
  - { offsetInCU: 0xD04F, offset: 0x131541, size: 0x8, addend: 0x0, symName: __ZN9_VampHost4Vamp7HostExt24PluginInputDomainAdapter4Impl10initialiseEmmm, symObjAddr: 0xDD0, symBinAddr: 0x1C240, symSize: 0x340 }
  - { offsetInCU: 0xD558, offset: 0x131A4A, size: 0x8, addend: 0x0, symName: __ZN9_VampHost6WindowIdE7encacheEv, symObjAddr: 0x2100, symBinAddr: 0x1D0F8, symSize: 0x1C8 }
  - { offsetInCU: 0xD604, offset: 0x131AF6, size: 0x8, addend: 0x0, symName: __ZN9_VampHost4Vamp7HostExt24PluginInputDomainAdapter5resetEv, symObjAddr: 0x1110, symBinAddr: 0x1C580, symSize: 0x18 }
  - { offsetInCU: 0xD659, offset: 0x131B4B, size: 0x8, addend: 0x0, symName: __ZN9_VampHost4Vamp7HostExt24PluginInputDomainAdapter4Impl5resetEv, symObjAddr: 0x1128, symBinAddr: 0x1C598, symSize: 0x14 }
  - { offsetInCU: 0xD688, offset: 0x131B7A, size: 0x8, addend: 0x0, symName: __ZNK9_VampHost4Vamp7HostExt24PluginInputDomainAdapter14getInputDomainEv, symObjAddr: 0x113C, symBinAddr: 0x1C5AC, symSize: 0x8 }
  - { offsetInCU: 0xD6AD, offset: 0x131B9F, size: 0x8, addend: 0x0, symName: __ZNK9_VampHost4Vamp7HostExt24PluginInputDomainAdapter20getPreferredStepSizeEv, symObjAddr: 0x1144, symBinAddr: 0x1C5B4, symSize: 0x8 }
  - { offsetInCU: 0xD6E4, offset: 0x131BD6, size: 0x8, addend: 0x0, symName: __ZNK9_VampHost4Vamp7HostExt24PluginInputDomainAdapter4Impl20getPreferredStepSizeEv, symObjAddr: 0x114C, symBinAddr: 0x1C5BC, symSize: 0x5C }
  - { offsetInCU: 0xD74C, offset: 0x131C3E, size: 0x8, addend: 0x0, symName: __ZNK9_VampHost4Vamp7HostExt24PluginInputDomainAdapter4Impl21getPreferredBlockSizeEv, symObjAddr: 0x11B0, symBinAddr: 0x1C620, symSize: 0x64 }
  - { offsetInCU: 0xD7B4, offset: 0x131CA6, size: 0x8, addend: 0x0, symName: __ZNK9_VampHost4Vamp7HostExt24PluginInputDomainAdapter21getPreferredBlockSizeEv, symObjAddr: 0x11A8, symBinAddr: 0x1C618, symSize: 0x8 }
  - { offsetInCU: 0xD7EB, offset: 0x131CDD, size: 0x8, addend: 0x0, symName: __ZNK9_VampHost4Vamp7HostExt24PluginInputDomainAdapter4Impl23makeBlockSizeAcceptableEm, symObjAddr: 0x15B4, symBinAddr: 0x1CA18, symSize: 0x250 }
  - { offsetInCU: 0xDCF8, offset: 0x1321EA, size: 0x8, addend: 0x0, symName: __ZN9_VampHost4Vamp7HostExt24PluginInputDomainAdapter7processEPKPKfNS0_8RealTimeE, symObjAddr: 0x1214, symBinAddr: 0x1C684, symSize: 0x2C }
  - { offsetInCU: 0xDDB7, offset: 0x1322A9, size: 0x8, addend: 0x0, symName: __ZN9_VampHost4Vamp7HostExt24PluginInputDomainAdapter4Impl7processEPKPKfNS0_8RealTimeE, symObjAddr: 0x1240, symBinAddr: 0x1C6B0, symSize: 0xC0 }
  - { offsetInCU: 0xDF79, offset: 0x13246B, size: 0x8, addend: 0x0, symName: __ZN9_VampHost4Vamp7HostExt24PluginInputDomainAdapter4Impl24processShiftingTimestampEPKPKfNS0_8RealTimeE, symObjAddr: 0x1804, symBinAddr: 0x1CC68, symSize: 0x1E8 }
  - { offsetInCU: 0xE224, offset: 0x132716, size: 0x8, addend: 0x0, symName: __ZN9_VampHost4Vamp7HostExt24PluginInputDomainAdapter4Impl19processShiftingDataEPKPKfNS0_8RealTimeE, symObjAddr: 0x19EC, symBinAddr: 0x1CE50, symSize: 0x2A8 }
  - { offsetInCU: 0xE494, offset: 0x132986, size: 0x8, addend: 0x0, symName: __ZN9_VampHost4Vamp7HostExt24PluginInputDomainAdapter25setProcessTimestampMethodENS2_22ProcessTimestampMethodE, symObjAddr: 0x1300, symBinAddr: 0x1C770, symSize: 0xC }
  - { offsetInCU: 0xE4EF, offset: 0x1329E1, size: 0x8, addend: 0x0, symName: __ZN9_VampHost4Vamp7HostExt24PluginInputDomainAdapter4Impl25setProcessTimestampMethodENS2_22ProcessTimestampMethodE, symObjAddr: 0x130C, symBinAddr: 0x1C77C, symSize: 0x8 }
  - { offsetInCU: 0xE530, offset: 0x132A22, size: 0x8, addend: 0x0, symName: __ZNK9_VampHost4Vamp7HostExt24PluginInputDomainAdapter25getProcessTimestampMethodEv, symObjAddr: 0x1314, symBinAddr: 0x1C784, symSize: 0xC }
  - { offsetInCU: 0xE576, offset: 0x132A68, size: 0x8, addend: 0x0, symName: __ZNK9_VampHost4Vamp7HostExt24PluginInputDomainAdapter4Impl25getProcessTimestampMethodEv, symObjAddr: 0x1320, symBinAddr: 0x1C790, symSize: 0x8 }
  - { offsetInCU: 0xE599, offset: 0x132A8B, size: 0x8, addend: 0x0, symName: __ZNK9_VampHost4Vamp7HostExt24PluginInputDomainAdapter22getTimestampAdjustmentEv, symObjAddr: 0x1328, symBinAddr: 0x1C798, symSize: 0x8 }
  - { offsetInCU: 0xE5D9, offset: 0x132ACB, size: 0x8, addend: 0x0, symName: __ZNK9_VampHost4Vamp7HostExt24PluginInputDomainAdapter4Impl22getTimestampAdjustmentEv, symObjAddr: 0x1330, symBinAddr: 0x1C7A0, symSize: 0x88 }
  - { offsetInCU: 0xE626, offset: 0x132B18, size: 0x8, addend: 0x0, symName: __ZNK9_VampHost4Vamp7HostExt24PluginInputDomainAdapter13getWindowTypeEv, symObjAddr: 0x13B8, symBinAddr: 0x1C828, symSize: 0xC }
  - { offsetInCU: 0xE66D, offset: 0x132B5F, size: 0x8, addend: 0x0, symName: __ZNK9_VampHost4Vamp7HostExt24PluginInputDomainAdapter4Impl13getWindowTypeEv, symObjAddr: 0x13C4, symBinAddr: 0x1C834, symSize: 0x8 }
  - { offsetInCU: 0xE690, offset: 0x132B82, size: 0x8, addend: 0x0, symName: __ZN9_VampHost4Vamp7HostExt24PluginInputDomainAdapter13setWindowTypeENS2_10WindowTypeE, symObjAddr: 0x13CC, symBinAddr: 0x1C83C, symSize: 0x8 }
  - { offsetInCU: 0xE6DE, offset: 0x132BD0, size: 0x8, addend: 0x0, symName: __ZN9_VampHost4Vamp7HostExt24PluginInputDomainAdapter4Impl13setWindowTypeENS2_10WindowTypeE, symObjAddr: 0x13D4, symBinAddr: 0x1C844, symSize: 0xA8 }
  - { offsetInCU: 0xE7C0, offset: 0x132CB2, size: 0x8, addend: 0x0, symName: __ZN9_VampHost4Vamp7HostExt24PluginInputDomainAdapter4ImplC2EPNS0_6PluginEf, symObjAddr: 0x147C, symBinAddr: 0x1C8EC, symSize: 0x2C }
  - { offsetInCU: 0xE7F3, offset: 0x132CE5, size: 0x8, addend: 0x0, symName: __ZNK9_VampHost4Vamp7HostExt24PluginInputDomainAdapter4Impl11convertTypeENS2_10WindowTypeE, symObjAddr: 0x1594, symBinAddr: 0x1C9F8, symSize: 0x20 }
  - { offsetInCU: 0xEE84, offset: 0x133376, size: 0x8, addend: 0x0, symName: __ZN9_VampHost6WindowIdE7encacheEv, symObjAddr: 0x2100, symBinAddr: 0x1D0F8, symSize: 0x1C8 }
  - { offsetInCU: 0xEF11, offset: 0x133403, size: 0x8, addend: 0x0, symName: __ZN9_VampHost6WindowIdE9cosinewinEPddddd, symObjAddr: 0x2340, symBinAddr: 0x1D338, symSize: 0xE4 }
  - { offsetInCU: 0xEFD2, offset: 0x1334C4, size: 0x8, addend: 0x0, symName: __ZN9_VampHost6WindowIdED1Ev, symObjAddr: 0x22C8, symBinAddr: 0x1D2C0, symSize: 0x3C }
  - { offsetInCU: 0xF02D, offset: 0x13351F, size: 0x8, addend: 0x0, symName: __ZN9_VampHost6WindowIdED0Ev, symObjAddr: 0x2304, symBinAddr: 0x1D2FC, symSize: 0x3C }
  - { offsetInCU: 0x40, offset: 0x1335CF, size: 0x8, addend: 0x0, symName: __ZL5files, symObjAddr: 0x3BF08, symBinAddr: 0x38348, symSize: 0x0 }
  - { offsetInCU: 0x53C0, offset: 0x13894F, size: 0x8, addend: 0x0, symName: __ZNSt3__1L19piecewise_constructE, symObjAddr: 0x12DD, symBinAddr: 0x2BC30, symSize: 0x0 }
  - { offsetInCU: 0x82AF, offset: 0x13B83E, size: 0x8, addend: 0x0, symName: __ZL6cnames, symObjAddr: 0x3BF20, symBinAddr: 0x38360, symSize: 0x0 }
  - { offsetInCU: 0x8680, offset: 0x13BC0F, size: 0x8, addend: 0x0, symName: __ZL9haveFiles, symObjAddr: 0x3BF38, symBinAddr: 0x38378, symSize: 0x0 }
  - { offsetInCU: 0xA5FA, offset: 0x13DB89, size: 0x8, addend: 0x0, symName: __ZNSt3__16vectorINS_12basic_stringIcNS_11char_traitsIcEENS_9allocatorIcEEEENS4_IS6_EEED1B7v160006Ev, symObjAddr: 0x0, symBinAddr: 0x1D41C, symSize: 0x4 }
  - { offsetInCU: 0xA61E, offset: 0x13DBAD, size: 0x8, addend: 0x0, symName: __ZNSt3__16vectorINS_12basic_stringIcNS_11char_traitsIcEENS_9allocatorIcEEEENS4_IS6_EEED1B7v160006Ev, symObjAddr: 0x0, symBinAddr: 0x1D41C, symSize: 0x4 }
  - { offsetInCU: 0xA704, offset: 0x13DC93, size: 0x8, addend: 0x0, symName: __ZNSt3__13mapINS_12basic_stringIcNS_11char_traitsIcEENS_9allocatorIcEEEEPKcNS_4lessIS6_EENS4_INS_4pairIKS6_S8_EEEEED1B7v160006Ev, symObjAddr: 0x4, symBinAddr: 0x1D420, symSize: 0x28 }
  - { offsetInCU: 0xA7C2, offset: 0x13DD51, size: 0x8, addend: 0x0, symName: __ZNSt3__16__treeINS_12__value_typeINS_12basic_stringIcNS_11char_traitsIcEENS_9allocatorIcEEEEPKcEENS_19__map_value_compareIS7_SA_NS_4lessIS7_EELb1EEENS5_ISA_EEE7destroyEPNS_11__tree_nodeISA_PvEE, symObjAddr: 0x7F4, symBinAddr: 0x1DB00, symSize: 0x50 }
  - { offsetInCU: 0xAAC0, offset: 0x13E04F, size: 0x8, addend: 0x0, symName: _vhGetLibraryCount, symObjAddr: 0x2C, symBinAddr: 0x1D448, symSize: 0x34 }
  - { offsetInCU: 0xAB09, offset: 0x13E098, size: 0x8, addend: 0x0, symName: __ZL13initFilenamesv, symObjAddr: 0x60, symBinAddr: 0x1D47C, symSize: 0x188 }
  - { offsetInCU: 0xB457, offset: 0x13E9E6, size: 0x8, addend: 0x0, symName: __ZNSt3__16__treeINS_12__value_typeINS_12basic_stringIcNS_11char_traitsIcEENS_9allocatorIcEEEEPKcEENS_19__map_value_compareIS7_SA_NS_4lessIS7_EELb1EEENS5_ISA_EEE25__emplace_unique_key_argsIS7_JRKNS_21piecewise_construct_tENS_5tupleIJRKS7_EEENSL_IJEEEEEENS_4pairINS_15__tree_iteratorISA_PNS_11__tree_nodeISA_PvEElEEbEERKT_DpOT0_, symObjAddr: 0x844, symBinAddr: 0x1DB50, symSize: 0x94 }
  - { offsetInCU: 0xB607, offset: 0x13EB96, size: 0x8, addend: 0x0, symName: _vhGetLibraryName, symObjAddr: 0x1E8, symBinAddr: 0x1D604, symSize: 0x88 }
  - { offsetInCU: 0xB72E, offset: 0x13ECBD, size: 0x8, addend: 0x0, symName: _vhGetLibraryIndex, symObjAddr: 0x270, symBinAddr: 0x1D68C, symSize: 0x200 }
  - { offsetInCU: 0xC521, offset: 0x13FAB0, size: 0x8, addend: 0x0, symName: _vhLoadLibrary, symObjAddr: 0x470, symBinAddr: 0x1D88C, symSize: 0x20C }
  - { offsetInCU: 0xCCDD, offset: 0x14026C, size: 0x8, addend: 0x0, symName: _vhGetPluginCount, symObjAddr: 0x67C, symBinAddr: 0x1DA98, symSize: 0xC }
  - { offsetInCU: 0xCD18, offset: 0x1402A7, size: 0x8, addend: 0x0, symName: _vhGetPluginDescriptor, symObjAddr: 0x688, symBinAddr: 0x1DAA4, symSize: 0x28 }
  - { offsetInCU: 0xCD74, offset: 0x140303, size: 0x8, addend: 0x0, symName: _vhUnloadLibrary, symObjAddr: 0x6B0, symBinAddr: 0x1DACC, symSize: 0x34 }
  - { offsetInCU: 0xD1AC, offset: 0x14073B, size: 0x8, addend: 0x0, symName: __ZNSt3__16__treeINS_12__value_typeINS_12basic_stringIcNS_11char_traitsIcEENS_9allocatorIcEEEEPKcEENS_19__map_value_compareIS7_SA_NS_4lessIS7_EELb1EEENS5_ISA_EEE12__find_equalIS7_EERPNS_16__tree_node_baseIPvEERPNS_15__tree_end_nodeISL_EERKT_, symObjAddr: 0x8D8, symBinAddr: 0x1DBE4, symSize: 0x9C }
  - { offsetInCU: 0xD2E8, offset: 0x140877, size: 0x8, addend: 0x0, symName: __ZNSt3__16__treeINS_12__value_typeINS_12basic_stringIcNS_11char_traitsIcEENS_9allocatorIcEEEEPKcEENS_19__map_value_compareIS7_SA_NS_4lessIS7_EELb1EEENS5_ISA_EEE16__construct_nodeIJRKNS_21piecewise_construct_tENS_5tupleIJRKS7_EEENSL_IJEEEEEENS_10unique_ptrINS_11__tree_nodeISA_PvEENS_22__tree_node_destructorINS5_IST_EEEEEEDpOT_, symObjAddr: 0x974, symBinAddr: 0x1DC80, symSize: 0x84 }
  - { offsetInCU: 0xD630, offset: 0x140BBF, size: 0x8, addend: 0x0, symName: __ZNSt3__16__treeINS_12__value_typeINS_12basic_stringIcNS_11char_traitsIcEENS_9allocatorIcEEEEPKcEENS_19__map_value_compareIS7_SA_NS_4lessIS7_EELb1EEENS5_ISA_EEE16__insert_node_atEPNS_15__tree_end_nodeIPNS_16__tree_node_baseIPvEEEERSL_SL_, symObjAddr: 0x9F8, symBinAddr: 0x1DD04, symSize: 0x54 }
  - { offsetInCU: 0xD6FF, offset: 0x140C8E, size: 0x8, addend: 0x0, symName: __ZNKSt3__14lessINS_12basic_stringIcNS_11char_traitsIcEENS_9allocatorIcEEEEEclB7v160006ERKS6_S9_, symObjAddr: 0xA4C, symBinAddr: 0x1DD58, symSize: 0x7C }
  - { offsetInCU: 0xDD6F, offset: 0x1412FE, size: 0x8, addend: 0x0, symName: __ZNSt3__122__tree_node_destructorINS_9allocatorINS_11__tree_nodeINS_12__value_typeINS_12basic_stringIcNS_11char_traitsIcEENS1_IcEEEEPKcEEPvEEEEEclB7v160006EPSD_, symObjAddr: 0xC60, symBinAddr: 0x1DDD4, symSize: 0x4C }
  - { offsetInCU: 0x52, offset: 0x141D4F, size: 0x8, addend: 0x0, symName: __ZN9_VampHost4Vamp7HostExtL16INVALID_DURATIONE, symObjAddr: 0x155358, symBinAddr: 0x38380, symSize: 0x0 }
  - { offsetInCU: 0x2F90, offset: 0x144C8D, size: 0x8, addend: 0x0, symName: __ZNSt3__1L19piecewise_constructE, symObjAddr: 0x5A76, symBinAddr: 0x2BC83, symSize: 0x0 }
  - { offsetInCU: 0x21812, offset: 0x16350F, size: 0x8, addend: 0x0, symName: __ZNSt3__111__introsortINS_17_ClassicAlgPolicyERNS_6__lessIN9_VampHost4Vamp7HostExt22ValueDurationFloatPairES6_EEPS6_EEvT1_SA_T0_NS_15iterator_traitsISA_E15difference_typeE, symObjAddr: 0x4728, symBinAddr: 0x21634, symSize: 0x3C0 }
  - { offsetInCU: 0x22555, offset: 0x164252, size: 0x8, addend: 0x0, symName: __ZNSt3__118__insertion_sort_3B7v160006INS_17_ClassicAlgPolicyERNS_6__lessIN9_VampHost4Vamp7HostExt22ValueDurationFloatPairES6_EEPS6_EEvT1_SA_T0_, symObjAddr: 0x4AE8, symBinAddr: 0x219F4, symSize: 0xB4 }
  - { offsetInCU: 0x22781, offset: 0x16447E, size: 0x8, addend: 0x0, symName: __ZNSt3__111__sift_downB7v160006INS_17_ClassicAlgPolicyERNS_6__lessIN9_VampHost4Vamp7HostExt22ValueDurationFloatPairES6_EEPS6_EEvT1_OT0_NS_15iterator_traitsISA_E15difference_typeESA_, symObjAddr: 0x501C, symBinAddr: 0x21F28, symSize: 0xC8 }
  - { offsetInCU: 0x229F9, offset: 0x1646F6, size: 0x8, addend: 0x0, symName: __ZNSt3__127__insertion_sort_incompleteIRNS_6__lessIN9_VampHost4Vamp7HostExt22ValueDurationFloatPairES5_EEPS5_EEbT0_S9_T_, symObjAddr: 0x4C48, symBinAddr: 0x21B54, symSize: 0x180 }
  - { offsetInCU: 0x29119, offset: 0x16AE16, size: 0x8, addend: 0x0, symName: __ZNSt3__119__allocate_at_leastB7v160006INS_9allocatorIN9_VampHost4Vamp7HostExt22ValueDurationFloatPairEEEEENS_19__allocation_resultINS_16allocator_traitsIT_E7pointerEEERS9_m, symObjAddr: 0x46F4, symBinAddr: 0x21600, symSize: 0x34 }
  - { offsetInCU: 0x291C1, offset: 0x16AEBE, size: 0x8, addend: 0x0, symName: __ZNSt3__111__introsortINS_17_ClassicAlgPolicyERNS_6__lessIN9_VampHost4Vamp7HostExt22ValueDurationFloatPairES6_EEPS6_EEvT1_SA_T0_NS_15iterator_traitsISA_E15difference_typeE, symObjAddr: 0x4728, symBinAddr: 0x21634, symSize: 0x3C0 }
  - { offsetInCU: 0x293AB, offset: 0x16B0A8, size: 0x8, addend: 0x0, symName: __ZNSt3__113__upper_boundB7v160006INS_17_ClassicAlgPolicyENS_6__lessIN9_VampHost4Vamp8RealTimeES5_EENS_21__tree_const_iteratorIS5_PNS_11__tree_nodeIS5_PvEElEESC_S5_NS_10__identityEEET1_SE_T2_RKT3_OT0_OT4_, symObjAddr: 0x4168, symBinAddr: 0x2117C, symSize: 0xF4 }
  - { offsetInCU: 0x2A23F, offset: 0x16BF3C, size: 0x8, addend: 0x0, symName: __ZNSt3__119__allocate_at_leastB7v160006INS_9allocatorIN9_VampHost4Vamp7HostExt24PluginSummarisingAdapter4Impl6ResultEEEEENS_19__allocation_resultINS_16allocator_traitsIT_E7pointerEEERSB_m, symObjAddr: 0x3F5C, symBinAddr: 0x20F70, symSize: 0x44 }
  - { offsetInCU: 0x2A2E7, offset: 0x16BFE4, size: 0x8, addend: 0x0, symName: __ZNSt3__142__uninitialized_allocator_move_if_noexceptB7v160006INS_9allocatorIN9_VampHost4Vamp7HostExt24PluginSummarisingAdapter4Impl6ResultEEENS_16reverse_iteratorIPS7_EESB_SB_EET2_RT_T0_T1_SC_, symObjAddr: 0x3FA0, symBinAddr: 0x20FB4, symSize: 0xC4 }
  - { offsetInCU: 0x2A346, offset: 0x16C043, size: 0x8, addend: 0x0, symName: __ZNSt3__142__uninitialized_allocator_move_if_noexceptB7v160006INS_9allocatorIN9_VampHost4Vamp7HostExt24PluginSummarisingAdapter4Impl6ResultEEENS_16reverse_iteratorIPS7_EESB_SB_EET2_RT_T0_T1_SC_, symObjAddr: 0x3FA0, symBinAddr: 0x20FB4, symSize: 0xC4 }
  - { offsetInCU: 0x2A95A, offset: 0x16C657, size: 0x8, addend: 0x0, symName: __ZNSt3__19__advanceB7v160006INS_21__tree_const_iteratorIN9_VampHost4Vamp8RealTimeEPNS_11__tree_nodeIS4_PvEElEEEEvRT_NS_15iterator_traitsISA_E15difference_typeENS_26bidirectional_iterator_tagE, symObjAddr: 0x425C, symBinAddr: 0x21270, symSize: 0x8C }
  - { offsetInCU: 0x2B08B, offset: 0x16CD88, size: 0x8, addend: 0x0, symName: __ZNSt3__17__sort5IRNS_6__lessIN9_VampHost4Vamp7HostExt22ValueDurationFloatPairES5_EEPS5_EEjT0_S9_S9_S9_S9_T_, symObjAddr: 0x5140, symBinAddr: 0x2204C, symSize: 0xEC }
  - { offsetInCU: 0x2B646, offset: 0x16D343, size: 0x8, addend: 0x0, symName: __ZNSt3__17__sort3B7v160006INS_17_ClassicAlgPolicyERNS_6__lessIN9_VampHost4Vamp7HostExt22ValueDurationFloatPairES6_EEPS6_EEjT1_SA_SA_T0_, symObjAddr: 0x4B9C, symBinAddr: 0x21AA8, symSize: 0xAC }
  - { offsetInCU: 0x2B6B3, offset: 0x16D3B0, size: 0x8, addend: 0x0, symName: __ZNSt3__17__sort3B7v160006INS_17_ClassicAlgPolicyERNS_6__lessIN9_VampHost4Vamp7HostExt22ValueDurationFloatPairES6_EEPS6_EEjT1_SA_SA_T0_, symObjAddr: 0x4B9C, symBinAddr: 0x21AA8, symSize: 0xAC }
  - { offsetInCU: 0x2B6E0, offset: 0x16D3DD, size: 0x8, addend: 0x0, symName: __ZNSt3__17__sort3B7v160006INS_17_ClassicAlgPolicyERNS_6__lessIN9_VampHost4Vamp7HostExt22ValueDurationFloatPairES6_EEPS6_EEjT1_SA_SA_T0_, symObjAddr: 0x4B9C, symBinAddr: 0x21AA8, symSize: 0xAC }
  - { offsetInCU: 0x2BB9B, offset: 0x16D898, size: 0x8, addend: 0x0, symName: __ZNSt3__17__sort4B7v160006INS_17_ClassicAlgPolicyERNS_6__lessIN9_VampHost4Vamp7HostExt22ValueDurationFloatPairES6_EEPS6_EEjT1_SA_SA_SA_T0_, symObjAddr: 0x4DC8, symBinAddr: 0x21CD4, symSize: 0xB4 }
  - { offsetInCU: 0x2BFFE, offset: 0x16DCFB, size: 0x8, addend: 0x0, symName: __ZNSt3__119__partial_sort_implB7v160006INS_17_ClassicAlgPolicyERNS_6__lessIN9_VampHost4Vamp7HostExt22ValueDurationFloatPairES6_EEPS6_S9_EET1_SA_SA_T2_OT0_, symObjAddr: 0x4E7C, symBinAddr: 0x21D88, symSize: 0x1A0 }
  - { offsetInCU: 0x2C6F3, offset: 0x16E3F0, size: 0x8, addend: 0x0, symName: __ZNSt3__19__sift_upB7v160006INS_17_ClassicAlgPolicyERNS_6__lessIN9_VampHost4Vamp7HostExt22ValueDurationFloatPairES6_EEPS6_EEvT1_SA_OT0_NS_15iterator_traitsISA_E15difference_typeE, symObjAddr: 0x50E4, symBinAddr: 0x21FF0, symSize: 0x5C }
  - { offsetInCU: 0x2F337, offset: 0x171034, size: 0x8, addend: 0x0, symName: __ZNSt3__16vectorIN9_VampHost4Vamp7HostExt24PluginSummarisingAdapter4Impl6ResultENS_9allocatorIS6_EEE26__swap_out_circular_bufferERNS_14__split_bufferIS6_RS8_EE, symObjAddr: 0x3ED4, symBinAddr: 0x20EE8, symSize: 0x74 }
  - { offsetInCU: 0x321D1, offset: 0x173ECE, size: 0x8, addend: 0x0, symName: __ZN9_VampHost4Vamp7HostExt24PluginSummarisingAdapterC2EPNS0_6PluginE, symObjAddr: 0x0, symBinAddr: 0x1DE84, symSize: 0xB4 }
  - { offsetInCU: 0x326C7, offset: 0x1743C4, size: 0x8, addend: 0x0, symName: __ZN9_VampHost4Vamp7HostExt24PluginSummarisingAdapter4ImplC1EPNS0_6PluginEf, symObjAddr: 0xB4, symBinAddr: 0x1DF38, symSize: 0x60 }
  - { offsetInCU: 0x326FB, offset: 0x1743F8, size: 0x8, addend: 0x0, symName: __ZN9_VampHost4Vamp7HostExt24PluginSummarisingAdapter4ImplC1EPNS0_6PluginEf, symObjAddr: 0xB4, symBinAddr: 0x1DF38, symSize: 0x60 }
  - { offsetInCU: 0x32B90, offset: 0x17488D, size: 0x8, addend: 0x0, symName: __ZN9_VampHost4Vamp7HostExt24PluginSummarisingAdapterC1EPNS0_6PluginE, symObjAddr: 0x114, symBinAddr: 0x1DF98, symSize: 0x4 }
  - { offsetInCU: 0x32BCB, offset: 0x1748C8, size: 0x8, addend: 0x0, symName: __ZN9_VampHost4Vamp7HostExt24PluginSummarisingAdapterC1EPNS0_6PluginE, symObjAddr: 0x114, symBinAddr: 0x1DF98, symSize: 0x4 }
  - { offsetInCU: 0x32C03, offset: 0x174900, size: 0x8, addend: 0x0, symName: __ZN9_VampHost4Vamp7HostExt24PluginSummarisingAdapterD2Ev, symObjAddr: 0x118, symBinAddr: 0x1DF9C, symSize: 0x3C }
  - { offsetInCU: 0x32C5C, offset: 0x174959, size: 0x8, addend: 0x0, symName: __ZN9_VampHost4Vamp7HostExt24PluginSummarisingAdapter4ImplD2Ev, symObjAddr: 0xBD4, symBinAddr: 0x1EA58, symSize: 0x68 }
  - { offsetInCU: 0x330A3, offset: 0x174DA0, size: 0x8, addend: 0x0, symName: __ZN9_VampHost4Vamp7HostExt24PluginSummarisingAdapter4ImplD1Ev, symObjAddr: 0x154, symBinAddr: 0x1DFD8, symSize: 0x4 }
  - { offsetInCU: 0x330C6, offset: 0x174DC3, size: 0x8, addend: 0x0, symName: __ZN9_VampHost4Vamp7HostExt24PluginSummarisingAdapter4ImplD1Ev, symObjAddr: 0x154, symBinAddr: 0x1DFD8, symSize: 0x4 }
  - { offsetInCU: 0x330DB, offset: 0x174DD8, size: 0x8, addend: 0x0, symName: __ZN9_VampHost4Vamp7HostExt24PluginSummarisingAdapterD1Ev, symObjAddr: 0x158, symBinAddr: 0x1DFDC, symSize: 0x4 }
  - { offsetInCU: 0x330FE, offset: 0x174DFB, size: 0x8, addend: 0x0, symName: __ZN9_VampHost4Vamp7HostExt24PluginSummarisingAdapterD1Ev, symObjAddr: 0x158, symBinAddr: 0x1DFDC, symSize: 0x4 }
  - { offsetInCU: 0x33134, offset: 0x174E31, size: 0x8, addend: 0x0, symName: __ZN9_VampHost4Vamp7HostExt24PluginSummarisingAdapterD0Ev, symObjAddr: 0x15C, symBinAddr: 0x1DFE0, symSize: 0x14 }
  - { offsetInCU: 0x331CB, offset: 0x174EC8, size: 0x8, addend: 0x0, symName: __ZN9_VampHost4Vamp7HostExt24PluginSummarisingAdapter10initialiseEmmm, symObjAddr: 0x170, symBinAddr: 0x1DFF4, symSize: 0x3C }
  - { offsetInCU: 0x33252, offset: 0x174F4F, size: 0x8, addend: 0x0, symName: __ZN9_VampHost4Vamp7HostExt24PluginSummarisingAdapter4Impl10initialiseEmmm, symObjAddr: 0x1AC, symBinAddr: 0x1E030, symSize: 0xC }
  - { offsetInCU: 0x3328D, offset: 0x174F8A, size: 0x8, addend: 0x0, symName: __ZN9_VampHost4Vamp7HostExt24PluginSummarisingAdapter5resetEv, symObjAddr: 0x1B8, symBinAddr: 0x1E03C, symSize: 0x8 }
  - { offsetInCU: 0x332C4, offset: 0x174FC1, size: 0x8, addend: 0x0, symName: __ZN9_VampHost4Vamp7HostExt24PluginSummarisingAdapter4Impl5resetEv, symObjAddr: 0x1C0, symBinAddr: 0x1E044, symSize: 0xBC }
  - { offsetInCU: 0x336A9, offset: 0x1753A6, size: 0x8, addend: 0x0, symName: __ZNSt3__16__treeINS_12__value_typeIiN9_VampHost4Vamp7HostExt24PluginSummarisingAdapter4Impl17OutputAccumulatorEEENS_19__map_value_compareIiS8_NS_4lessIiEELb1EEENS_9allocatorIS8_EEE7destroyEPNS_11__tree_nodeIS8_PvEE, symObjAddr: 0x2788, symBinAddr: 0x2031C, symSize: 0x48 }
  - { offsetInCU: 0x338CE, offset: 0x1755CB, size: 0x8, addend: 0x0, symName: __ZNSt3__16__treeINS_12__value_typeIiNS_3mapIN9_VampHost4Vamp8RealTimeENS4_7HostExt24PluginSummarisingAdapter4Impl17OutputAccumulatorENS_4lessIS5_EENS_9allocatorINS_4pairIKS5_S9_EEEEEEEENS_19__map_value_compareIiSI_NSA_IiEELb1EEENSC_ISI_EEE7destroyEPNS_11__tree_nodeISI_PvEE, symObjAddr: 0x289C, symBinAddr: 0x20430, symSize: 0x4C }
  - { offsetInCU: 0x33B29, offset: 0x175826, size: 0x8, addend: 0x0, symName: __ZNSt3__16__treeINS_12__value_typeIiN9_VampHost4Vamp8RealTimeEEENS_19__map_value_compareIiS5_NS_4lessIiEELb1EEENS_9allocatorIS5_EEE7destroyEPNS_11__tree_nodeIS5_PvEE, symObjAddr: 0x2930, symBinAddr: 0x204C4, symSize: 0x40 }
  - { offsetInCU: 0x33C74, offset: 0x175971, size: 0x8, addend: 0x0, symName: __ZNSt3__16__treeINS_12__value_typeIiNS_3mapIN9_VampHost4Vamp8RealTimeENS2_IiNS4_7HostExt24PluginSummarisingAdapter4Impl16OutputBinSummaryENS_4lessIiEENS_9allocatorINS_4pairIKiS9_EEEEEENSA_IS5_EENSC_INSD_IKS5_SH_EEEEEEEENS_19__map_value_compareIiSN_SB_Lb1EEENSC_ISN_EEE7destroyEPNS_11__tree_nodeISN_PvEE, symObjAddr: 0x2970, symBinAddr: 0x20504, symSize: 0x4C }
  - { offsetInCU: 0x33F1B, offset: 0x175C18, size: 0x8, addend: 0x0, symName: __ZN9_VampHost4Vamp7HostExt24PluginSummarisingAdapter7processEPKPKfNS0_8RealTimeE, symObjAddr: 0x27C, symBinAddr: 0x1E100, symSize: 0x2C }
  - { offsetInCU: 0x33FDA, offset: 0x175CD7, size: 0x8, addend: 0x0, symName: __ZN9_VampHost4Vamp7HostExt24PluginSummarisingAdapter4Impl7processEPKPKfNS0_8RealTimeE, symObjAddr: 0x2A8, symBinAddr: 0x1E12C, symSize: 0x164 }
  - { offsetInCU: 0x3444B, offset: 0x176148, size: 0x8, addend: 0x0, symName: __ZN9_VampHost4Vamp7HostExt24PluginSummarisingAdapter4Impl10accumulateERKNSt3__13mapIiNS4_6vectorINS0_6Plugin7FeatureENS4_9allocatorIS8_EEEENS4_4lessIiEENS9_INS4_4pairIKiSB_EEEEEENS0_8RealTimeEb, symObjAddr: 0xC3C, symBinAddr: 0x1EAC0, symSize: 0xE4 }
  - { offsetInCU: 0x347E3, offset: 0x1764E0, size: 0x8, addend: 0x0, symName: __ZN9_VampHost4Vamp7HostExt24PluginSummarisingAdapter20getRemainingFeaturesEv, symObjAddr: 0x40C, symBinAddr: 0x1E290, symSize: 0x8 }
  - { offsetInCU: 0x34823, offset: 0x176520, size: 0x8, addend: 0x0, symName: __ZN9_VampHost4Vamp7HostExt24PluginSummarisingAdapter4Impl20getRemainingFeaturesEv, symObjAddr: 0x414, symBinAddr: 0x1E298, symSize: 0x100 }
  - { offsetInCU: 0x34B12, offset: 0x17680F, size: 0x8, addend: 0x0, symName: __ZN9_VampHost4Vamp7HostExt24PluginSummarisingAdapter27setSummarySegmentBoundariesERKNSt3__13setINS0_8RealTimeENS3_4lessIS5_EENS3_9allocatorIS5_EEEE, symObjAddr: 0x514, symBinAddr: 0x1E398, symSize: 0x20 }
  - { offsetInCU: 0x34BF2, offset: 0x1768EF, size: 0x8, addend: 0x0, symName: __ZNSt3__16__treeIN9_VampHost4Vamp8RealTimeENS_4lessIS3_EENS_9allocatorIS3_EEE14__assign_multiINS_21__tree_const_iteratorIS3_PNS_11__tree_nodeIS3_PvEElEEEEvT_SG_, symObjAddr: 0x2D80, symBinAddr: 0x205DC, symSize: 0x170 }
  - { offsetInCU: 0x34F3F, offset: 0x176C3C, size: 0x8, addend: 0x0, symName: __ZN9_VampHost4Vamp7HostExt24PluginSummarisingAdapter4Impl27setSummarySegmentBoundariesERKNSt3__13setINS0_8RealTimeENS4_4lessIS6_EENS4_9allocatorIS6_EEEE, symObjAddr: 0x534, symBinAddr: 0x1E3B8, symSize: 0x1C }
  - { offsetInCU: 0x34FEB, offset: 0x176CE8, size: 0x8, addend: 0x0, symName: __ZN9_VampHost4Vamp7HostExt24PluginSummarisingAdapter19getSummaryForOutputEiNS2_11SummaryTypeENS2_15AveragingMethodE, symObjAddr: 0x550, symBinAddr: 0x1E3D4, symSize: 0x8 }
  - { offsetInCU: 0x3506D, offset: 0x176D6A, size: 0x8, addend: 0x0, symName: __ZN9_VampHost4Vamp7HostExt24PluginSummarisingAdapter4Impl19getSummaryForOutputEiNS2_11SummaryTypeENS2_15AveragingMethodE, symObjAddr: 0x558, symBinAddr: 0x1E3DC, symSize: 0x4B8 }
  - { offsetInCU: 0x36967, offset: 0x178664, size: 0x8, addend: 0x0, symName: __ZN9_VampHost4Vamp7HostExt24PluginSummarisingAdapter4Impl24accumulateFinalDurationsEv, symObjAddr: 0xD20, symBinAddr: 0x1EBA4, symSize: 0x23C }
  - { offsetInCU: 0x36F7A, offset: 0x178C77, size: 0x8, addend: 0x0, symName: __ZN9_VampHost4Vamp7HostExt24PluginSummarisingAdapter4Impl7segmentEv, symObjAddr: 0xF5C, symBinAddr: 0x1EDE0, symSize: 0x35C }
  - { offsetInCU: 0x37A6E, offset: 0x17976B, size: 0x8, addend: 0x0, symName: __ZN9_VampHost4Vamp7HostExt24PluginSummarisingAdapter4Impl6reduceEv, symObjAddr: 0x12B8, symBinAddr: 0x1F13C, symSize: 0x9DC }
  - { offsetInCU: 0x39A5F, offset: 0x17B75C, size: 0x8, addend: 0x0, symName: __ZNSt3__16__treeINS_12__value_typeIiNS_3mapIN9_VampHost4Vamp8RealTimeENS2_IiNS4_7HostExt24PluginSummarisingAdapter4Impl16OutputBinSummaryENS_4lessIiEENS_9allocatorINS_4pairIKiS9_EEEEEENSA_IS5_EENSC_INSD_IKS5_SH_EEEEEEEENS_19__map_value_compareIiSN_SB_Lb1EEENSC_ISN_EEE25__emplace_unique_key_argsIiJRKNS_21piecewise_construct_tENS_5tupleIJRSE_EEENSW_IJEEEEEENSD_INS_15__tree_iteratorISN_PNS_11__tree_nodeISN_PvEElEEbEERKT_DpOT0_, symObjAddr: 0x32AC, symBinAddr: 0x20970, symSize: 0xCC }
  - { offsetInCU: 0x39E72, offset: 0x17BB6F, size: 0x8, addend: 0x0, symName: __ZN9_VampHost4Vamp7HostExt24PluginSummarisingAdapter4Impl15getSummaryLabelENS2_11SummaryTypeENS2_15AveragingMethodE, symObjAddr: 0x1C94, symBinAddr: 0x1FB18, symSize: 0x284 }
  - { offsetInCU: 0x3AA35, offset: 0x17C732, size: 0x8, addend: 0x0, symName: __ZN9_VampHost4Vamp7HostExt24PluginSummarisingAdapter23getSummaryForAllOutputsENS2_11SummaryTypeENS2_15AveragingMethodE, symObjAddr: 0xA10, symBinAddr: 0x1E894, symSize: 0x8 }
  - { offsetInCU: 0x3AAA1, offset: 0x17C79E, size: 0x8, addend: 0x0, symName: __ZN9_VampHost4Vamp7HostExt24PluginSummarisingAdapter4Impl23getSummaryForAllOutputsENS2_11SummaryTypeENS2_15AveragingMethodE, symObjAddr: 0xA18, symBinAddr: 0x1E89C, symSize: 0x15C }
  - { offsetInCU: 0x3B3C5, offset: 0x17D0C2, size: 0x8, addend: 0x0, symName: __ZNSt3__16vectorIN9_VampHost4Vamp6Plugin7FeatureENS_9allocatorIS4_EEE13__vdeallocateEv, symObjAddr: 0x3A7C, symBinAddr: 0x20A90, symSize: 0x6C }
  - { offsetInCU: 0x3B587, offset: 0x17D284, size: 0x8, addend: 0x0, symName: __ZN9_VampHost4Vamp7HostExt24PluginSummarisingAdapter4ImplC2EPNS0_6PluginEf, symObjAddr: 0xB74, symBinAddr: 0x1E9F8, symSize: 0x60 }
  - { offsetInCU: 0x3BC53, offset: 0x17D950, size: 0x8, addend: 0x0, symName: __ZNSt3__16__treeIN9_VampHost4Vamp8RealTimeENS_4lessIS3_EENS_9allocatorIS3_EEE7destroyEPNS_11__tree_nodeIS3_PvEE, symObjAddr: 0x2748, symBinAddr: 0x202DC, symSize: 0x40 }
  - { offsetInCU: 0x3BE55, offset: 0x17DB52, size: 0x8, addend: 0x0, symName: __ZN9_VampHost4Vamp7HostExt24PluginSummarisingAdapter4Impl10accumulateEiRKNS0_6Plugin7FeatureENS0_8RealTimeEb, symObjAddr: 0x1F58, symBinAddr: 0x1FD9C, symSize: 0x488 }
  - { offsetInCU: 0x3D160, offset: 0x17EE5D, size: 0x8, addend: 0x0, symName: __ZNSt3__16__treeINS_12__value_typeIiN9_VampHost4Vamp7HostExt24PluginSummarisingAdapter4Impl17OutputAccumulatorEEENS_19__map_value_compareIiS8_NS_4lessIiEELb1EEENS_9allocatorIS8_EEE25__emplace_unique_key_argsIiJRKNS_21piecewise_construct_tENS_5tupleIJRKiEEENSK_IJEEEEEENS_4pairINS_15__tree_iteratorIS8_PNS_11__tree_nodeIS8_PvEElEEbEERKT_DpOT0_, symObjAddr: 0x3BFC, symBinAddr: 0x20C10, symSize: 0xEC }
  - { offsetInCU: 0x3D645, offset: 0x17F342, size: 0x8, addend: 0x0, symName: __ZNSt3__16__treeINS_12__value_typeIiN9_VampHost4Vamp8RealTimeEEENS_19__map_value_compareIiS5_NS_4lessIiEELb1EEENS_9allocatorIS5_EEE25__emplace_unique_key_argsIiJRKNS_21piecewise_construct_tENS_5tupleIJRKiEEENSH_IJEEEEEENS_4pairINS_15__tree_iteratorIS5_PNS_11__tree_nodeIS5_PvEElEEbEERKT_DpOT0_, symObjAddr: 0x3AE8, symBinAddr: 0x20AFC, symSize: 0xC0 }
  - { offsetInCU: 0x3DB9A, offset: 0x17F897, size: 0x8, addend: 0x0, symName: __ZN9_VampHost4Vamp7HostExt24PluginSummarisingAdapter4Impl17findSegmentBoundsENS0_8RealTimeERS4_S5_, symObjAddr: 0x23E0, symBinAddr: 0x20224, symSize: 0xB8 }
  - { offsetInCU: 0x3DE8E, offset: 0x17FB8B, size: 0x8, addend: 0x0, symName: __ZNSt3__16__treeINS_12__value_typeIiNS_3mapIN9_VampHost4Vamp8RealTimeENS4_7HostExt24PluginSummarisingAdapter4Impl17OutputAccumulatorENS_4lessIS5_EENS_9allocatorINS_4pairIKS5_S9_EEEEEEEENS_19__map_value_compareIiSI_NSA_IiEELb1EEENSC_ISI_EEE25__emplace_unique_key_argsIiJRKNS_21piecewise_construct_tENS_5tupleIJRKiEEENSS_IJEEEEEENSD_INS_15__tree_iteratorISI_PNS_11__tree_nodeISI_PvEElEEbEERKT_DpOT0_, symObjAddr: 0x42E8, symBinAddr: 0x212FC, symSize: 0xCC }
  - { offsetInCU: 0x3E2A1, offset: 0x17FF9E, size: 0x8, addend: 0x0, symName: __ZNSt3__16__treeINS_12__value_typeIN9_VampHost4Vamp8RealTimeENS3_7HostExt24PluginSummarisingAdapter4Impl17OutputAccumulatorEEENS_19__map_value_compareIS4_S9_NS_4lessIS4_EELb1EEENS_9allocatorIS9_EEE25__emplace_unique_key_argsIS4_JRKNS_21piecewise_construct_tENS_5tupleIJRKS4_EEENSL_IJEEEEEENS_4pairINS_15__tree_iteratorIS9_PNS_11__tree_nodeIS9_PvEElEEbEERKT_DpOT0_, symObjAddr: 0x4408, symBinAddr: 0x2141C, symSize: 0xB8 }
  - { offsetInCU: 0x3EB39, offset: 0x180836, size: 0x8, addend: 0x0, symName: __ZNKSt3__16vectorIN9_VampHost4Vamp7HostExt22ValueDurationFloatPairENS_9allocatorIS4_EEE20__throw_length_errorB7v160006Ev, symObjAddr: 0x46E0, symBinAddr: 0x215EC, symSize: 0x14 }
  - { offsetInCU: 0x3EB5C, offset: 0x180859, size: 0x8, addend: 0x0, symName: __ZNSt3__16vectorIN9_VampHost4Vamp7HostExt24PluginSummarisingAdapter4Impl6ResultENS_9allocatorIS6_EEE22__construct_one_at_endB7v160006IJRKS6_EEEvDpOT_, symObjAddr: 0x3D80, symBinAddr: 0x20D94, symSize: 0x4C }
  - { offsetInCU: 0x3EDEA, offset: 0x180AE7, size: 0x8, addend: 0x0, symName: __ZNSt3__16vectorIN9_VampHost4Vamp7HostExt24PluginSummarisingAdapter4Impl6ResultENS_9allocatorIS6_EEE21__push_back_slow_pathIRKS6_EEvOT_, symObjAddr: 0x3DCC, symBinAddr: 0x20DE0, symSize: 0x108 }
  - { offsetInCU: 0x3FD4C, offset: 0x181A49, size: 0x8, addend: 0x0, symName: __ZNSt3__16__treeINS_12__value_typeIfiEENS_19__map_value_compareIfS2_NS_4lessIfEELb1EEENS_9allocatorIS2_EEE25__emplace_unique_key_argsIfJRKNS_21piecewise_construct_tENS_5tupleIJRKfEEENSE_IJEEEEEENS_4pairINS_15__tree_iteratorIS2_PNS_11__tree_nodeIS2_PvEElEEbEERKT_DpOT0_, symObjAddr: 0x526C, symBinAddr: 0x22178, symSize: 0xC0 }
  - { offsetInCU: 0x400AA, offset: 0x181DA7, size: 0x8, addend: 0x0, symName: __ZNSt3__16__treeINS_12__value_typeIfiEENS_19__map_value_compareIfS2_NS_4lessIfEELb1EEENS_9allocatorIS2_EEE7destroyEPNS_11__tree_nodeIS2_PvEE, symObjAddr: 0x522C, symBinAddr: 0x22138, symSize: 0x40 }
  - { offsetInCU: 0x401F5, offset: 0x181EF2, size: 0x8, addend: 0x0, symName: __ZNSt3__16__treeINS_12__value_typeIfdEENS_19__map_value_compareIfS2_NS_4lessIfEELb1EEENS_9allocatorIS2_EEE25__emplace_unique_key_argsIfJRKNS_21piecewise_construct_tENS_5tupleIJRKfEEENSE_IJEEEEEENS_4pairINS_15__tree_iteratorIS2_PNS_11__tree_nodeIS2_PvEElEEbEERKT_DpOT0_, symObjAddr: 0x53C0, symBinAddr: 0x222CC, symSize: 0xC0 }
  - { offsetInCU: 0x40553, offset: 0x182250, size: 0x8, addend: 0x0, symName: __ZNSt3__16__treeINS_12__value_typeIfdEENS_19__map_value_compareIfS2_NS_4lessIfEELb1EEENS_9allocatorIS2_EEE7destroyEPNS_11__tree_nodeIS2_PvEE, symObjAddr: 0x5380, symBinAddr: 0x2228C, symSize: 0x40 }
  - { offsetInCU: 0x4069E, offset: 0x18239B, size: 0x8, addend: 0x0, symName: __ZNSt3__16__treeINS_12__value_typeIN9_VampHost4Vamp8RealTimeENS_3mapIiNS3_7HostExt24PluginSummarisingAdapter4Impl16OutputBinSummaryENS_4lessIiEENS_9allocatorINS_4pairIKiS9_EEEEEEEENS_19__map_value_compareIS4_SI_NSA_IS4_EELb1EEENSC_ISI_EEE25__emplace_unique_key_argsIS4_JRKNS_21piecewise_construct_tENS_5tupleIJRKS4_EEENSS_IJEEEEEENSD_INS_15__tree_iteratorISI_PNS_11__tree_nodeISI_PvEElEEbEERKT_DpOT0_, symObjAddr: 0x54D4, symBinAddr: 0x223E0, symSize: 0x94 }
  - { offsetInCU: 0x40AAD, offset: 0x1827AA, size: 0x8, addend: 0x0, symName: __ZNSt3__16__treeINS_12__value_typeIiN9_VampHost4Vamp7HostExt24PluginSummarisingAdapter4Impl16OutputBinSummaryEEENS_19__map_value_compareIiS8_NS_4lessIiEELb1EEENS_9allocatorIS8_EEE25__emplace_unique_key_argsIiJRKNS_21piecewise_construct_tENS_5tupleIJRKiEEENSK_IJEEEEEENS_4pairINS_15__tree_iteratorIS8_PNS_11__tree_nodeIS8_PvEElEEbEERKT_DpOT0_, symObjAddr: 0x563C, symBinAddr: 0x22548, symSize: 0xD8 }
  - { offsetInCU: 0x40E0F, offset: 0x182B0C, size: 0x8, addend: 0x0, symName: __ZNKSt3__16vectorIN9_VampHost4Vamp7HostExt22ValueDurationFloatPairENS_9allocatorIS4_EEE20__throw_length_errorB7v160006Ev, symObjAddr: 0x46E0, symBinAddr: 0x215EC, symSize: 0x14 }
  - { offsetInCU: 0x40E39, offset: 0x182B36, size: 0x8, addend: 0x0, symName: __ZNSt3__119__allocate_at_leastB7v160006INS_9allocatorIN9_VampHost4Vamp7HostExt22ValueDurationFloatPairEEEEENS_19__allocation_resultINS_16allocator_traitsIT_E7pointerEEERS9_m, symObjAddr: 0x46F4, symBinAddr: 0x21600, symSize: 0x34 }
  - { offsetInCU: 0x417C1, offset: 0x1834BE, size: 0x8, addend: 0x0, symName: __ZNSt3__16vectorIN9_VampHost4Vamp7HostExt24PluginSummarisingAdapter4Impl6ResultENS_9allocatorIS6_EEED2B7v160006Ev, symObjAddr: 0x27D0, symBinAddr: 0x20364, symSize: 0x38 }
  - { offsetInCU: 0x418A7, offset: 0x1835A4, size: 0x8, addend: 0x0, symName: __ZNSt3__16vectorIN9_VampHost4Vamp7HostExt24PluginSummarisingAdapter4Impl6ResultENS_9allocatorIS6_EEE16__destroy_vectorclB7v160006Ev, symObjAddr: 0x2808, symBinAddr: 0x2039C, symSize: 0x40 }
  - { offsetInCU: 0x419F7, offset: 0x1836F4, size: 0x8, addend: 0x0, symName: __ZNSt3__16vectorIN9_VampHost4Vamp7HostExt24PluginSummarisingAdapter4Impl6ResultENS_9allocatorIS6_EEE7__clearB7v160006Ev, symObjAddr: 0x2848, symBinAddr: 0x203DC, symSize: 0x54 }
  - { offsetInCU: 0x41E05, offset: 0x183B02, size: 0x8, addend: 0x0, symName: __ZNSt3__16__treeINS_12__value_typeIN9_VampHost4Vamp8RealTimeENS3_7HostExt24PluginSummarisingAdapter4Impl17OutputAccumulatorEEENS_19__map_value_compareIS4_S9_NS_4lessIS4_EELb1EEENS_9allocatorIS9_EEE7destroyEPNS_11__tree_nodeIS9_PvEE, symObjAddr: 0x28E8, symBinAddr: 0x2047C, symSize: 0x48 }
  - { offsetInCU: 0x4229F, offset: 0x183F9C, size: 0x8, addend: 0x0, symName: __ZNSt3__16__treeINS_12__value_typeIN9_VampHost4Vamp8RealTimeENS_3mapIiNS3_7HostExt24PluginSummarisingAdapter4Impl16OutputBinSummaryENS_4lessIiEENS_9allocatorINS_4pairIKiS9_EEEEEEEENS_19__map_value_compareIS4_SI_NSA_IS4_EELb1EEENSC_ISI_EEE7destroyEPNS_11__tree_nodeISI_PvEE, symObjAddr: 0x29BC, symBinAddr: 0x20550, symSize: 0x4C }
  - { offsetInCU: 0x42647, offset: 0x184344, size: 0x8, addend: 0x0, symName: __ZNSt3__16__treeINS_12__value_typeIiN9_VampHost4Vamp7HostExt24PluginSummarisingAdapter4Impl16OutputBinSummaryEEENS_19__map_value_compareIiS8_NS_4lessIiEELb1EEENS_9allocatorIS8_EEE7destroyEPNS_11__tree_nodeIS8_PvEE, symObjAddr: 0x2A08, symBinAddr: 0x2059C, symSize: 0x40 }
  - { offsetInCU: 0x42B42, offset: 0x18483F, size: 0x8, addend: 0x0, symName: __ZNSt3__16__treeIN9_VampHost4Vamp8RealTimeENS_4lessIS3_EENS_9allocatorIS3_EEE14__assign_multiINS_21__tree_const_iteratorIS3_PNS_11__tree_nodeIS3_PvEElEEEEvT_SG_, symObjAddr: 0x2D80, symBinAddr: 0x205DC, symSize: 0x170 }
  - { offsetInCU: 0x42CEF, offset: 0x1849EC, size: 0x8, addend: 0x0, symName: __ZNSt3__16__treeIN9_VampHost4Vamp8RealTimeENS_4lessIS3_EENS_9allocatorIS3_EEE18_DetachedTreeCache13__detach_nextEPNS_11__tree_nodeIS3_PvEE, symObjAddr: 0x3160, symBinAddr: 0x20824, symSize: 0x54 }
  - { offsetInCU: 0x42D74, offset: 0x184A71, size: 0x8, addend: 0x0, symName: __ZNSt3__16__treeIN9_VampHost4Vamp8RealTimeENS_4lessIS3_EENS_9allocatorIS3_EEE19__node_insert_multiEPNS_11__tree_nodeIS3_PvEE, symObjAddr: 0x2EF0, symBinAddr: 0x2074C, symSize: 0x84 }
  - { offsetInCU: 0x42E98, offset: 0x184B95, size: 0x8, addend: 0x0, symName: __ZNSt3__16__treeIN9_VampHost4Vamp8RealTimeENS_4lessIS3_EENS_9allocatorIS3_EEE18_DetachedTreeCacheD2B7v160006Ev, symObjAddr: 0x31B4, symBinAddr: 0x20878, symSize: 0x54 }
  - { offsetInCU: 0x42EDF, offset: 0x184BDC, size: 0x8, addend: 0x0, symName: __ZNSt3__16__treeIN9_VampHost4Vamp8RealTimeENS_4lessIS3_EENS_9allocatorIS3_EEE15__emplace_multiIJRKS3_EEENS_15__tree_iteratorIS3_PNS_11__tree_nodeIS3_PvEElEEDpOT_, symObjAddr: 0x3208, symBinAddr: 0x208CC, symSize: 0xA4 }
  - { offsetInCU: 0x431FA, offset: 0x184EF7, size: 0x8, addend: 0x0, symName: __ZNSt3__16__treeIN9_VampHost4Vamp8RealTimeENS_4lessIS3_EENS_9allocatorIS3_EEE16__insert_node_atEPNS_15__tree_end_nodeIPNS_16__tree_node_baseIPvEEEERSD_SD_, symObjAddr: 0x2F74, symBinAddr: 0x207D0, symSize: 0x54 }
  - { offsetInCU: 0x4382F, offset: 0x18552C, size: 0x8, addend: 0x0, symName: __ZNSt3__16__treeINS_12__value_typeIiNS_3mapIN9_VampHost4Vamp8RealTimeENS2_IiNS4_7HostExt24PluginSummarisingAdapter4Impl16OutputBinSummaryENS_4lessIiEENS_9allocatorINS_4pairIKiS9_EEEEEENSA_IS5_EENSC_INSD_IKS5_SH_EEEEEEEENS_19__map_value_compareIiSN_SB_Lb1EEENSC_ISN_EEE16__insert_node_atEPNS_15__tree_end_nodeIPNS_16__tree_node_baseIPvEEEERSW_SW_, symObjAddr: 0x3378, symBinAddr: 0x20A3C, symSize: 0x54 }
  - { offsetInCU: 0x44CB6, offset: 0x1869B3, size: 0x8, addend: 0x0, symName: __ZNSt3__16__treeINS_12__value_typeIiN9_VampHost4Vamp8RealTimeEEENS_19__map_value_compareIiS5_NS_4lessIiEELb1EEENS_9allocatorIS5_EEE16__insert_node_atEPNS_15__tree_end_nodeIPNS_16__tree_node_baseIPvEEEERSH_SH_, symObjAddr: 0x3BA8, symBinAddr: 0x20BBC, symSize: 0x54 }
  - { offsetInCU: 0x45284, offset: 0x186F81, size: 0x8, addend: 0x0, symName: __ZNSt3__16__treeINS_12__value_typeIiN9_VampHost4Vamp7HostExt24PluginSummarisingAdapter4Impl17OutputAccumulatorEEENS_19__map_value_compareIiS8_NS_4lessIiEELb1EEENS_9allocatorIS8_EEE16__insert_node_atEPNS_15__tree_end_nodeIPNS_16__tree_node_baseIPvEEEERSK_SK_, symObjAddr: 0x3CE8, symBinAddr: 0x20CFC, symSize: 0x54 }
  - { offsetInCU: 0x452EE, offset: 0x186FEB, size: 0x8, addend: 0x0, symName: __ZNSt3__110unique_ptrINS_11__tree_nodeINS_12__value_typeIiN9_VampHost4Vamp7HostExt24PluginSummarisingAdapter4Impl17OutputAccumulatorEEEPvEENS_22__tree_node_destructorINS_9allocatorISB_EEEEE5resetB7v160006EPSB_, symObjAddr: 0x3D3C, symBinAddr: 0x20D50, symSize: 0x44 }
  - { offsetInCU: 0x45889, offset: 0x187586, size: 0x8, addend: 0x0, symName: __ZNSt3__114__split_bufferIN9_VampHost4Vamp7HostExt24PluginSummarisingAdapter4Impl6ResultERNS_9allocatorIS6_EEED2Ev, symObjAddr: 0x40DC, symBinAddr: 0x210F0, symSize: 0x34 }
  - { offsetInCU: 0x459A5, offset: 0x1876A2, size: 0x8, addend: 0x0, symName: __ZNKSt3__16vectorIN9_VampHost4Vamp7HostExt24PluginSummarisingAdapter4Impl6ResultENS_9allocatorIS6_EEE20__throw_length_errorB7v160006Ev, symObjAddr: 0x3F48, symBinAddr: 0x20F5C, symSize: 0x14 }
  - { offsetInCU: 0x459CF, offset: 0x1876CC, size: 0x8, addend: 0x0, symName: __ZNSt3__119__allocate_at_leastB7v160006INS_9allocatorIN9_VampHost4Vamp7HostExt24PluginSummarisingAdapter4Impl6ResultEEEEENS_19__allocation_resultINS_16allocator_traitsIT_E7pointerEEERSB_m, symObjAddr: 0x3F5C, symBinAddr: 0x20F70, symSize: 0x44 }
  - { offsetInCU: 0x45AAE, offset: 0x1877AB, size: 0x8, addend: 0x0, symName: __ZNSt3__128__exception_guard_exceptionsINS_29_AllocatorDestroyRangeReverseINS_9allocatorIN9_VampHost4Vamp7HostExt24PluginSummarisingAdapter4Impl6ResultEEENS_16reverse_iteratorIPS8_EEEEED2B7v160006Ev, symObjAddr: 0x4064, symBinAddr: 0x21078, symSize: 0x34 }
  - { offsetInCU: 0x45AEF, offset: 0x1877EC, size: 0x8, addend: 0x0, symName: __ZNKSt3__129_AllocatorDestroyRangeReverseINS_9allocatorIN9_VampHost4Vamp7HostExt24PluginSummarisingAdapter4Impl6ResultEEENS_16reverse_iteratorIPS7_EEEclB7v160006Ev, symObjAddr: 0x4098, symBinAddr: 0x210AC, symSize: 0x44 }
  - { offsetInCU: 0x45D8D, offset: 0x187A8A, size: 0x8, addend: 0x0, symName: __ZNSt3__114__split_bufferIN9_VampHost4Vamp7HostExt24PluginSummarisingAdapter4Impl6ResultERNS_9allocatorIS6_EEE17__destruct_at_endB7v160006EPS6_, symObjAddr: 0x4110, symBinAddr: 0x21124, symSize: 0x58 }
  - { offsetInCU: 0x464D8, offset: 0x1881D5, size: 0x8, addend: 0x0, symName: __ZNSt3__16__treeINS_12__value_typeIiNS_3mapIN9_VampHost4Vamp8RealTimeENS4_7HostExt24PluginSummarisingAdapter4Impl17OutputAccumulatorENS_4lessIS5_EENS_9allocatorINS_4pairIKS5_S9_EEEEEEEENS_19__map_value_compareIiSI_NSA_IiEELb1EEENSC_ISI_EEE16__insert_node_atEPNS_15__tree_end_nodeIPNS_16__tree_node_baseIPvEEEERSS_SS_, symObjAddr: 0x43B4, symBinAddr: 0x213C8, symSize: 0x54 }
  - { offsetInCU: 0x469C9, offset: 0x1886C6, size: 0x8, addend: 0x0, symName: __ZNSt3__16__treeINS_12__value_typeIN9_VampHost4Vamp8RealTimeENS3_7HostExt24PluginSummarisingAdapter4Impl17OutputAccumulatorEEENS_19__map_value_compareIS4_S9_NS_4lessIS4_EELb1EEENS_9allocatorIS9_EEE12__find_equalIS4_EERPNS_16__tree_node_baseIPvEERPNS_15__tree_end_nodeISL_EERKT_, symObjAddr: 0x44C0, symBinAddr: 0x214D4, symSize: 0x80 }
  - { offsetInCU: 0x46A34, offset: 0x188731, size: 0x8, addend: 0x0, symName: __ZNSt3__16__treeINS_12__value_typeIN9_VampHost4Vamp8RealTimeENS3_7HostExt24PluginSummarisingAdapter4Impl17OutputAccumulatorEEENS_19__map_value_compareIS4_S9_NS_4lessIS4_EELb1EEENS_9allocatorIS9_EEE12__find_equalIS4_EERPNS_16__tree_node_baseIPvEERPNS_15__tree_end_nodeISL_EERKT_, symObjAddr: 0x44C0, symBinAddr: 0x214D4, symSize: 0x80 }
  - { offsetInCU: 0x46B2A, offset: 0x188827, size: 0x8, addend: 0x0, symName: __ZNSt3__16__treeINS_12__value_typeIN9_VampHost4Vamp8RealTimeENS3_7HostExt24PluginSummarisingAdapter4Impl17OutputAccumulatorEEENS_19__map_value_compareIS4_S9_NS_4lessIS4_EELb1EEENS_9allocatorIS9_EEE16__insert_node_atEPNS_15__tree_end_nodeIPNS_16__tree_node_baseIPvEEEERSL_SL_, symObjAddr: 0x4540, symBinAddr: 0x21554, symSize: 0x54 }
  - { offsetInCU: 0x46B94, offset: 0x188891, size: 0x8, addend: 0x0, symName: __ZNSt3__110unique_ptrINS_11__tree_nodeINS_12__value_typeIN9_VampHost4Vamp8RealTimeENS4_7HostExt24PluginSummarisingAdapter4Impl17OutputAccumulatorEEEPvEENS_22__tree_node_destructorINS_9allocatorISC_EEEEE5resetB7v160006EPSC_, symObjAddr: 0x4594, symBinAddr: 0x215A8, symSize: 0x44 }
  - { offsetInCU: 0x47394, offset: 0x189091, size: 0x8, addend: 0x0, symName: __ZNSt3__16__treeINS_12__value_typeIfiEENS_19__map_value_compareIfS2_NS_4lessIfEELb1EEENS_9allocatorIS2_EEE16__insert_node_atEPNS_15__tree_end_nodeIPNS_16__tree_node_baseIPvEEEERSE_SE_, symObjAddr: 0x532C, symBinAddr: 0x22238, symSize: 0x54 }
  - { offsetInCU: 0x477BE, offset: 0x1894BB, size: 0x8, addend: 0x0, symName: __ZNSt3__16__treeINS_12__value_typeIfdEENS_19__map_value_compareIfS2_NS_4lessIfEELb1EEENS_9allocatorIS2_EEE16__insert_node_atEPNS_15__tree_end_nodeIPNS_16__tree_node_baseIPvEEEERSE_SE_, symObjAddr: 0x5480, symBinAddr: 0x2238C, symSize: 0x54 }
  - { offsetInCU: 0x47C0D, offset: 0x18990A, size: 0x8, addend: 0x0, symName: __ZNSt3__16__treeINS_12__value_typeIN9_VampHost4Vamp8RealTimeENS_3mapIiNS3_7HostExt24PluginSummarisingAdapter4Impl16OutputBinSummaryENS_4lessIiEENS_9allocatorINS_4pairIKiS9_EEEEEEEENS_19__map_value_compareIS4_SI_NSA_IS4_EELb1EEENSC_ISI_EEE12__find_equalIS4_EERPNS_16__tree_node_baseIPvEERPNS_15__tree_end_nodeISS_EERKT_, symObjAddr: 0x5568, symBinAddr: 0x22474, symSize: 0x80 }
  - { offsetInCU: 0x47C78, offset: 0x189975, size: 0x8, addend: 0x0, symName: __ZNSt3__16__treeINS_12__value_typeIN9_VampHost4Vamp8RealTimeENS_3mapIiNS3_7HostExt24PluginSummarisingAdapter4Impl16OutputBinSummaryENS_4lessIiEENS_9allocatorINS_4pairIKiS9_EEEEEEEENS_19__map_value_compareIS4_SI_NSA_IS4_EELb1EEENSC_ISI_EEE12__find_equalIS4_EERPNS_16__tree_node_baseIPvEERPNS_15__tree_end_nodeISS_EERKT_, symObjAddr: 0x5568, symBinAddr: 0x22474, symSize: 0x80 }
  - { offsetInCU: 0x47D6E, offset: 0x189A6B, size: 0x8, addend: 0x0, symName: __ZNSt3__16__treeINS_12__value_typeIN9_VampHost4Vamp8RealTimeENS_3mapIiNS3_7HostExt24PluginSummarisingAdapter4Impl16OutputBinSummaryENS_4lessIiEENS_9allocatorINS_4pairIKiS9_EEEEEEEENS_19__map_value_compareIS4_SI_NSA_IS4_EELb1EEENSC_ISI_EEE16__insert_node_atEPNS_15__tree_end_nodeIPNS_16__tree_node_baseIPvEEEERSS_SS_, symObjAddr: 0x55E8, symBinAddr: 0x224F4, symSize: 0x54 }
  - { offsetInCU: 0x4819B, offset: 0x189E98, size: 0x8, addend: 0x0, symName: __ZNSt3__16__treeINS_12__value_typeIiN9_VampHost4Vamp7HostExt24PluginSummarisingAdapter4Impl16OutputBinSummaryEEENS_19__map_value_compareIiS8_NS_4lessIiEELb1EEENS_9allocatorIS8_EEE16__insert_node_atEPNS_15__tree_end_nodeIPNS_16__tree_node_baseIPvEEEERSK_SK_, symObjAddr: 0x5714, symBinAddr: 0x22620, symSize: 0x54 }
  - { offsetInCU: 0x96C4, offset: 0x1935FC, size: 0x8, addend: 0x0, symName: __ZNSt3__1eqB7v160006IcNS_11char_traitsIcEENS_9allocatorIcEEEEbRKNS_12basic_stringIT_T0_T1_EEPKS6_, symObjAddr: 0x132C, symBinAddr: 0x23810, symSize: 0xA0 }
  - { offsetInCU: 0xA1E6, offset: 0x19411E, size: 0x8, addend: 0x0, symName: __ZNSt3__128__exception_guard_exceptionsINS_6vectorIN11_VampPlugin4Vamp6Plugin7FeatureENS_9allocatorIS5_EEE16__destroy_vectorEED2B7v160006Ev, symObjAddr: 0x279C, symBinAddr: 0x2488C, symSize: 0x34 }
  - { offsetInCU: 0xD888, offset: 0x1977C0, size: 0x8, addend: 0x0, symName: __ZN8NNLSBaseC2Ef, symObjAddr: 0x0, symBinAddr: 0x22688, symSize: 0xFC }
  - { offsetInCU: 0xDB10, offset: 0x197A48, size: 0x8, addend: 0x0, symName: __ZNSt3__128__exception_guard_exceptionsINS_6vectorIN11_VampPlugin4Vamp6Plugin7FeatureENS_9allocatorIS5_EEE16__destroy_vectorEED2B7v160006Ev, symObjAddr: 0x279C, symBinAddr: 0x2488C, symSize: 0x34 }
  - { offsetInCU: 0xDDA4, offset: 0x197CDC, size: 0x8, addend: 0x0, symName: __ZN8NNLSBaseD2Ev, symObjAddr: 0xFC, symBinAddr: 0x22784, symSize: 0xD0 }
  - { offsetInCU: 0xEA02, offset: 0x19893A, size: 0x8, addend: 0x0, symName: __ZN8NNLSBaseD1Ev, symObjAddr: 0x1D8, symBinAddr: 0x22854, symSize: 0x4 }
  - { offsetInCU: 0xEA2B, offset: 0x198963, size: 0x8, addend: 0x0, symName: __ZN8NNLSBaseD0Ev, symObjAddr: 0x1DC, symBinAddr: 0x22858, symSize: 0x4 }
  - { offsetInCU: 0xEA86, offset: 0x1989BE, size: 0x8, addend: 0x0, symName: __ZNK8NNLSBase8getMakerEv, symObjAddr: 0x1E0, symBinAddr: 0x2285C, symSize: 0x10 }
  - { offsetInCU: 0xED0C, offset: 0x198C44, size: 0x8, addend: 0x0, symName: __ZNK8NNLSBase16getPluginVersionEv, symObjAddr: 0x1F0, symBinAddr: 0x2286C, symSize: 0x8 }
  - { offsetInCU: 0xED31, offset: 0x198C69, size: 0x8, addend: 0x0, symName: __ZNK8NNLSBase12getCopyrightEv, symObjAddr: 0x1F8, symBinAddr: 0x22874, symSize: 0x10 }
  - { offsetInCU: 0xED95, offset: 0x198CCD, size: 0x8, addend: 0x0, symName: __ZNK8NNLSBase14getInputDomainEv, symObjAddr: 0x208, symBinAddr: 0x22884, symSize: 0x8 }
  - { offsetInCU: 0xEDBA, offset: 0x198CF2, size: 0x8, addend: 0x0, symName: __ZNK8NNLSBase21getPreferredBlockSizeEv, symObjAddr: 0x210, symBinAddr: 0x2288C, symSize: 0x8 }
  - { offsetInCU: 0xEDDF, offset: 0x198D17, size: 0x8, addend: 0x0, symName: __ZNK8NNLSBase20getPreferredStepSizeEv, symObjAddr: 0x218, symBinAddr: 0x22894, symSize: 0x8 }
  - { offsetInCU: 0xEE04, offset: 0x198D3C, size: 0x8, addend: 0x0, symName: __ZNK8NNLSBase18getMinChannelCountEv, symObjAddr: 0x220, symBinAddr: 0x2289C, symSize: 0x8 }
  - { offsetInCU: 0xEE29, offset: 0x198D61, size: 0x8, addend: 0x0, symName: __ZNK8NNLSBase18getMaxChannelCountEv, symObjAddr: 0x228, symBinAddr: 0x228A4, symSize: 0x8 }
  - { offsetInCU: 0xF478, offset: 0x1993B0, size: 0x8, addend: 0x0, symName: __ZNK8NNLSBase23getParameterDescriptorsEv, symObjAddr: 0x230, symBinAddr: 0x228AC, symSize: 0xC80 }
  - { offsetInCU: 0x1519E, offset: 0x19F0D6, size: 0x8, addend: 0x0, symName: __ZNK8NNLSBase12getParameterENSt3__112basic_stringIcNS0_11char_traitsIcEENS0_9allocatorIcEEEE, symObjAddr: 0x1048, symBinAddr: 0x2352C, symSize: 0x2E4 }
  - { offsetInCU: 0x15955, offset: 0x19F88D, size: 0x8, addend: 0x0, symName: __ZN8NNLSBase12setParameterENSt3__112basic_stringIcNS0_11char_traitsIcEENS0_9allocatorIcEEEEf, symObjAddr: 0x13CC, symBinAddr: 0x238B0, symSize: 0x2D0 }
  - { offsetInCU: 0x159A0, offset: 0x19F8D8, size: 0x8, addend: 0x0, symName: __ZN8NNLSBase12setParameterENSt3__112basic_stringIcNS0_11char_traitsIcEENS0_9allocatorIcEEEEf, symObjAddr: 0x13CC, symBinAddr: 0x238B0, symSize: 0x2D0 }
  - { offsetInCU: 0x159DD, offset: 0x19F915, size: 0x8, addend: 0x0, symName: __ZN8NNLSBase12setParameterENSt3__112basic_stringIcNS0_11char_traitsIcEENS0_9allocatorIcEEEEf, symObjAddr: 0x13CC, symBinAddr: 0x238B0, symSize: 0x2D0 }
  - { offsetInCU: 0x164A0, offset: 0x1A03D8, size: 0x8, addend: 0x0, symName: __ZNK8NNLSBase11getProgramsEv, symObjAddr: 0x169C, symBinAddr: 0x23B80, symSize: 0xC }
  - { offsetInCU: 0x164D8, offset: 0x1A0410, size: 0x8, addend: 0x0, symName: __ZNK8NNLSBase11getProgramsEv, symObjAddr: 0x169C, symBinAddr: 0x23B80, symSize: 0xC }
  - { offsetInCU: 0x164F6, offset: 0x1A042E, size: 0x8, addend: 0x0, symName: __ZNK8NNLSBase11getProgramsEv, symObjAddr: 0x169C, symBinAddr: 0x23B80, symSize: 0xC }
  - { offsetInCU: 0x16514, offset: 0x1A044C, size: 0x8, addend: 0x0, symName: __ZNK8NNLSBase17getCurrentProgramEv, symObjAddr: 0x16A8, symBinAddr: 0x23B8C, symSize: 0x10 }
  - { offsetInCU: 0x1657A, offset: 0x1A04B2, size: 0x8, addend: 0x0, symName: __ZN8NNLSBase13selectProgramENSt3__112basic_stringIcNS0_11char_traitsIcEENS0_9allocatorIcEEEE, symObjAddr: 0x16B8, symBinAddr: 0x23B9C, symSize: 0x4 }
  - { offsetInCU: 0x16DBB, offset: 0x1A0CF3, size: 0x8, addend: 0x0, symName: __ZN8NNLSBase10initialiseEmmm, symObjAddr: 0x16BC, symBinAddr: 0x23BA0, symSize: 0x77C }
  - { offsetInCU: 0x191C9, offset: 0x1A3101, size: 0x8, addend: 0x0, symName: __ZN8NNLSBase5resetEv, symObjAddr: 0x1E38, symBinAddr: 0x2431C, symSize: 0x7C }
  - { offsetInCU: 0x1930D, offset: 0x1A3245, size: 0x8, addend: 0x0, symName: __ZN8NNLSBase5resetEv, symObjAddr: 0x1E38, symBinAddr: 0x2431C, symSize: 0x7C }
  - { offsetInCU: 0x198E5, offset: 0x1A381D, size: 0x8, addend: 0x0, symName: __ZN8NNLSBase11baseProcessEPKPKfN11_VampPlugin4Vamp8RealTimeE, symObjAddr: 0x1EB4, symBinAddr: 0x24398, symSize: 0x4F4 }
  - { offsetInCU: 0x81FF, offset: 0x1AF2E0, size: 0x8, addend: 0x0, symName: '-[ChordItem initWithChord:time:]', symObjAddr: 0x0, symBinAddr: 0x248C0, symSize: 0xA4 }
  - { offsetInCU: 0x8256, offset: 0x1AF337, size: 0x8, addend: 0x0, symName: '-[ChordItem chord]', symObjAddr: 0xA4, symBinAddr: 0x24964, symSize: 0x8 }
  - { offsetInCU: 0x828D, offset: 0x1AF36E, size: 0x8, addend: 0x0, symName: '-[ChordItem setChord:]', symObjAddr: 0xAC, symBinAddr: 0x2496C, symSize: 0xC }
  - { offsetInCU: 0x82CE, offset: 0x1AF3AF, size: 0x8, addend: 0x0, symName: '-[ChordItem time]', symObjAddr: 0xB8, symBinAddr: 0x24978, symSize: 0x8 }
  - { offsetInCU: 0x8303, offset: 0x1AF3E4, size: 0x8, addend: 0x0, symName: '-[ChordItem setTime:]', symObjAddr: 0xC0, symBinAddr: 0x24980, symSize: 0x8 }
  - { offsetInCU: 0x8341, offset: 0x1AF422, size: 0x8, addend: 0x0, symName: '-[ChordItem .cxx_destruct]', symObjAddr: 0xC8, symBinAddr: 0x24988, symSize: 0xC }
  - { offsetInCU: 0x8374, offset: 0x1AF455, size: 0x8, addend: 0x0, symName: '-[ChordinoWrapper initWithSamplerate:]', symObjAddr: 0xD4, symBinAddr: 0x24994, symSize: 0xAC }
  - { offsetInCU: 0x83BB, offset: 0x1AF49C, size: 0x8, addend: 0x0, symName: '-[ChordinoWrapper initialize:]', symObjAddr: 0x180, symBinAddr: 0x24A40, symSize: 0x24 }
  - { offsetInCU: 0x83FE, offset: 0x1AF4DF, size: 0x8, addend: 0x0, symName: '-[ChordinoWrapper process:milliseconds:]', symObjAddr: 0x1A4, symBinAddr: 0x24A64, symSize: 0x2C }
  - { offsetInCU: 0x851E, offset: 0x1AF5FF, size: 0x8, addend: 0x0, symName: '-[ChordinoWrapper getResult]', symObjAddr: 0x1D0, symBinAddr: 0x24A90, symSize: 0x1D8 }
  - { offsetInCU: 0x876B, offset: 0x1AF84C, size: 0x8, addend: 0x0, symName: __ZNSt3__16vectorI12chord_info_tNS_9allocatorIS1_EEED2B7v160006Ev, symObjAddr: 0x3CC, symBinAddr: 0x24C8C, symSize: 0x38 }
  - { offsetInCU: 0x87FD, offset: 0x1AF8DE, size: 0x8, addend: 0x0, symName: '-[ChordinoWrapper reset]', symObjAddr: 0x3A8, symBinAddr: 0x24C68, symSize: 0x14 }
  - { offsetInCU: 0x8830, offset: 0x1AF911, size: 0x8, addend: 0x0, symName: '-[ChordinoWrapper extractor]', symObjAddr: 0x3BC, symBinAddr: 0x24C7C, symSize: 0x8 }
  - { offsetInCU: 0x8867, offset: 0x1AF948, size: 0x8, addend: 0x0, symName: '-[ChordinoWrapper setExtractor:]', symObjAddr: 0x3C4, symBinAddr: 0x24C84, symSize: 0x8 }
  - { offsetInCU: 0x88F8, offset: 0x1AF9D9, size: 0x8, addend: 0x0, symName: __ZNSt3__16vectorI12chord_info_tNS_9allocatorIS1_EEE16__destroy_vectorclB7v160006Ev, symObjAddr: 0x410, symBinAddr: 0x24CC4, symSize: 0x40 }
  - { offsetInCU: 0x8A4D, offset: 0x1AFB2E, size: 0x8, addend: 0x0, symName: __ZNSt3__16vectorI12chord_info_tNS_9allocatorIS1_EEE7__clearB7v160006Ev, symObjAddr: 0x450, symBinAddr: 0x24D04, symSize: 0x54 }
  - { offsetInCU: 0x59, offset: 0x1AFF62, size: 0x8, addend: 0x0, symName: __ZN11_VampPlugin4Vamp8RealTime8zeroTimeE, symObjAddr: 0x10A4, symBinAddr: 0x2BD10, symSize: 0x0 }
  - { offsetInCU: 0x67, offset: 0x1AFF70, size: 0x8, addend: 0x0, symName: __ZN11_VampPlugin4VamplsERNSt3__113basic_ostreamIcNS1_11char_traitsIcEEEERKNS0_8RealTimeE, symObjAddr: 0x27C, symBinAddr: 0x24F44, symSize: 0x108 }
  - { offsetInCU: 0x6957, offset: 0x1B6860, size: 0x8, addend: 0x0, symName: __ZN11_VampPlugin4Vamp8RealTimeC2Eii, symObjAddr: 0x0, symBinAddr: 0x24D58, symSize: 0xF0 }
  - { offsetInCU: 0x69A2, offset: 0x1B68AB, size: 0x8, addend: 0x0, symName: __ZN11_VampPlugin4Vamp8RealTimeC1Eii, symObjAddr: 0xF0, symBinAddr: 0x24E48, symSize: 0x4 }
  - { offsetInCU: 0x69D6, offset: 0x1B68DF, size: 0x8, addend: 0x0, symName: __ZN11_VampPlugin4Vamp8RealTimeC1Eii, symObjAddr: 0xF0, symBinAddr: 0x24E48, symSize: 0x4 }
  - { offsetInCU: 0x6AC7, offset: 0x1B69D0, size: 0x8, addend: 0x0, symName: __ZN11_VampPlugin4Vamp8RealTime11fromSecondsEd, symObjAddr: 0xF4, symBinAddr: 0x24E4C, symSize: 0xAC }
  - { offsetInCU: 0x6CB3, offset: 0x1B6BBC, size: 0x8, addend: 0x0, symName: __ZN11_VampPlugin4Vamp8RealTime16fromMillisecondsEi, symObjAddr: 0x230, symBinAddr: 0x24EF8, symSize: 0x34 }
  - { offsetInCU: 0x6D1F, offset: 0x1B6C28, size: 0x8, addend: 0x0, symName: __ZN11_VampPlugin4Vamp8RealTime11fromTimevalERK7timeval, symObjAddr: 0x264, symBinAddr: 0x24F2C, symSize: 0x18 }
  - { offsetInCU: 0x6FDC, offset: 0x1B6EE5, size: 0x8, addend: 0x0, symName: __ZNK11_VampPlugin4Vamp8RealTime8toStringEv, symObjAddr: 0x384, symBinAddr: 0x2504C, symSize: 0x120 }
  - { offsetInCU: 0x7871, offset: 0x1B777A, size: 0x8, addend: 0x0, symName: __ZNK11_VampPlugin4Vamp8RealTime6toTextEb, symObjAddr: 0x658, symBinAddr: 0x2516C, symSize: 0x384 }
  - { offsetInCU: 0x8011, offset: 0x1B7F1A, size: 0x8, addend: 0x0, symName: __ZNK11_VampPlugin4Vamp8RealTimedvEi, symObjAddr: 0x9DC, symBinAddr: 0x254F0, symSize: 0x40 }
  - { offsetInCU: 0x80BF, offset: 0x1B7FC8, size: 0x8, addend: 0x0, symName: __ZNK11_VampPlugin4Vamp8RealTimedvERKS1_, symObjAddr: 0xA1C, symBinAddr: 0x25530, symSize: 0x40 }
  - { offsetInCU: 0x8114, offset: 0x1B801D, size: 0x8, addend: 0x0, symName: __ZN11_VampPlugin4Vamp8RealTime14realTime2FrameERKS1_j, symObjAddr: 0xA5C, symBinAddr: 0x25570, symSize: 0x88 }
  - { offsetInCU: 0x81EC, offset: 0x1B80F5, size: 0x8, addend: 0x0, symName: __ZN11_VampPlugin4Vamp8RealTime14frame2RealTimeElj, symObjAddr: 0xAE4, symBinAddr: 0x255F8, symSize: 0x90 }
  - { offsetInCU: 0xB6C4, offset: 0x1C3E03, size: 0x8, addend: 0x0, symName: __Z11ViterbiPathNSt3__16vectorIdNS_9allocatorIdEEEENS0_IS3_NS1_IS3_EEEES5_PdPS3_, symObjAddr: 0x0, symBinAddr: 0x25688, symSize: 0x8F0 }
  - { offsetInCU: 0xD39D, offset: 0x1C5ADC, size: 0x8, addend: 0x0, symName: __ZNSt3__16vectorIiNS_9allocatorIiEEEC2EmRKi, symObjAddr: 0xDB0, symBinAddr: 0x25F78, symSize: 0x80 }
  - { offsetInCU: 0x5F, offset: 0x1C6EB8, size: 0x8, addend: 0x0, symName: __ZNSt3__1L19piecewise_constructE, symObjAddr: 0xED2, symBinAddr: 0x2BD30, symSize: 0x0 }
  - { offsetInCU: 0x82F2, offset: 0x1CF14B, size: 0x8, addend: 0x0, symName: __ZNSt3__119__allocate_at_leastB7v160006INS_9allocatorI12chord_info_tEEEENS_19__allocation_resultINS_16allocator_traitsIT_E7pointerEEERS6_m, symObjAddr: 0xC00, symBinAddr: 0x26570, symSize: 0x34 }
  - { offsetInCU: 0xD1DC, offset: 0x1D4035, size: 0x8, addend: 0x0, symName: __ZN12ChordExtractC2Ef, symObjAddr: 0x0, symBinAddr: 0x25FF8, symSize: 0xA4 }
  - { offsetInCU: 0xD240, offset: 0x1D4099, size: 0x8, addend: 0x0, symName: __ZN12ChordExtractC1Ef, symObjAddr: 0xA4, symBinAddr: 0x2609C, symSize: 0x4 }
  - { offsetInCU: 0xD27D, offset: 0x1D40D6, size: 0x8, addend: 0x0, symName: __ZN12ChordExtractC1Ef, symObjAddr: 0xA4, symBinAddr: 0x2609C, symSize: 0x4 }
  - { offsetInCU: 0xD29B, offset: 0x1D40F4, size: 0x8, addend: 0x0, symName: __ZN12ChordExtractD2Ev, symObjAddr: 0xA8, symBinAddr: 0x260A0, symSize: 0x34 }
  - { offsetInCU: 0xD2EB, offset: 0x1D4144, size: 0x8, addend: 0x0, symName: __ZN12ChordExtractD1Ev, symObjAddr: 0xDC, symBinAddr: 0x260D4, symSize: 0x34 }
  - { offsetInCU: 0xD342, offset: 0x1D419B, size: 0x8, addend: 0x0, symName: __ZN12ChordExtract10initializeEm, symObjAddr: 0x110, symBinAddr: 0x26108, symSize: 0x7C }
  - { offsetInCU: 0xD480, offset: 0x1D42D9, size: 0x8, addend: 0x0, symName: __ZN12ChordExtract7processEPfl, symObjAddr: 0x18C, symBinAddr: 0x26184, symSize: 0x64 }
  - { offsetInCU: 0xD959, offset: 0x1D47B2, size: 0x8, addend: 0x0, symName: __ZN12ChordExtract9getResultEv, symObjAddr: 0x1F0, symBinAddr: 0x261E8, symSize: 0x298 }
  - { offsetInCU: 0xE1D5, offset: 0x1D502E, size: 0x8, addend: 0x0, symName: __ZNSt3__16vectorI12chord_info_tNS_9allocatorIS1_EEEC2Em, symObjAddr: 0xB20, symBinAddr: 0x26490, symSize: 0x8C }
  - { offsetInCU: 0xE55E, offset: 0x1D53B7, size: 0x8, addend: 0x0, symName: __ZN12ChordExtract5resetEv, symObjAddr: 0x488, symBinAddr: 0x26480, symSize: 0x10 }
  - { offsetInCU: 0xFEA8, offset: 0x1D6D01, size: 0x8, addend: 0x0, symName: __ZNSt3__16vectorI12chord_info_tNS_9allocatorIS1_EEE11__vallocateB7v160006Em, symObjAddr: 0xBAC, symBinAddr: 0x2651C, symSize: 0x40 }
  - { offsetInCU: 0xFF28, offset: 0x1D6D81, size: 0x8, addend: 0x0, symName: __ZNKSt3__16vectorI12chord_info_tNS_9allocatorIS1_EEE20__throw_length_errorB7v160006Ev, symObjAddr: 0xBEC, symBinAddr: 0x2655C, symSize: 0x14 }
  - { offsetInCU: 0xFF3C, offset: 0x1D6D95, size: 0x8, addend: 0x0, symName: __ZNSt3__128__exception_guard_exceptionsINS_6vectorI12chord_info_tNS_9allocatorIS2_EEE16__destroy_vectorEED2B7v160006Ev, symObjAddr: 0xCA8, symBinAddr: 0x265A4, symSize: 0x34 }
  - { offsetInCU: 0xFF93, offset: 0x1D6DEC, size: 0x8, addend: 0x0, symName: __ZNKSt3__16vectorI12chord_info_tNS_9allocatorIS1_EEE20__throw_length_errorB7v160006Ev, symObjAddr: 0xBEC, symBinAddr: 0x2655C, symSize: 0x14 }
  - { offsetInCU: 0xFFBC, offset: 0x1D6E15, size: 0x8, addend: 0x0, symName: __ZNSt3__119__allocate_at_leastB7v160006INS_9allocatorI12chord_info_tEEEENS_19__allocation_resultINS_16allocator_traitsIT_E7pointerEEERS6_m, symObjAddr: 0xC00, symBinAddr: 0x26570, symSize: 0x34 }
  - { offsetInCU: 0x4C, offset: 0x1D7908, size: 0x8, addend: 0x0, symName: __ZN9_VampHost4Vamp7HostExt12PluginLoader10m_instanceE, symObjAddr: 0xBE738, symBinAddr: 0x38338, symSize: 0x0 }
  - { offsetInCU: 0x8A0, offset: 0x1D815C, size: 0x8, addend: 0x0, symName: __ZN9_VampHost4Vamp7HostExt12PluginLoader4Impl9m_cleanerE, symObjAddr: 0xBE740, symBinAddr: 0x38340, symSize: 0x0 }
  - { offsetInCU: 0xCDE0, offset: 0x1E469C, size: 0x8, addend: 0x0, symName: __ZNSt3__1L19piecewise_constructE, symObjAddr: 0x537E, symBinAddr: 0x2BDD0, symSize: 0x0 }
  - { offsetInCU: 0x1734D, offset: 0x1EEC09, size: 0x8, addend: 0x0, symName: __ZNSt3__121__unwrap_and_dispatchB7v160006INS_10__overloadINS_11__copy_loopINS_17_ClassicAlgPolicyEEENS_14__copy_trivialEEEPNS_12basic_stringIcNS_11char_traitsIcEENS_9allocatorIcEEEESD_SD_Li0EEENS_4pairIT0_T2_EESF_T1_SG_, symObjAddr: 0x37B8, symBinAddr: 0x2954C, symSize: 0x5C }
  - { offsetInCU: 0x17B63, offset: 0x1EF41F, size: 0x8, addend: 0x0, symName: __ZNSt3__113__tree_removeB7v160006IPNS_16__tree_node_baseIPvEEEEvT_S5_, symObjAddr: 0x46C8, symBinAddr: 0x29E14, symSize: 0x384 }
  - { offsetInCU: 0x1B42B, offset: 0x1F2CE7, size: 0x8, addend: 0x0, symName: __ZN9_VampHost4Vamp7HostExt12PluginLoader4Impl15InstanceCleanerD1Ev, symObjAddr: 0x0, symBinAddr: 0x265D8, symSize: 0x34 }
  - { offsetInCU: 0x1B842, offset: 0x1F30FE, size: 0x8, addend: 0x0, symName: __ZN9_VampHost4Vamp7HostExt12PluginLoaderC2Ev, symObjAddr: 0x34, symBinAddr: 0x2660C, symSize: 0x70 }
  - { offsetInCU: 0x1BB2E, offset: 0x1F33EA, size: 0x8, addend: 0x0, symName: __ZN9_VampHost4Vamp7HostExt12PluginLoader4ImplC1Ev, symObjAddr: 0xA4, symBinAddr: 0x2667C, symSize: 0x3C }
  - { offsetInCU: 0x1BB51, offset: 0x1F340D, size: 0x8, addend: 0x0, symName: __ZN9_VampHost4Vamp7HostExt12PluginLoader4ImplC1Ev, symObjAddr: 0xA4, symBinAddr: 0x2667C, symSize: 0x3C }
  - { offsetInCU: 0x1BB6E, offset: 0x1F342A, size: 0x8, addend: 0x0, symName: __ZN9_VampHost4Vamp7HostExt12PluginLoader4ImplC1Ev, symObjAddr: 0xA4, symBinAddr: 0x2667C, symSize: 0x3C }
  - { offsetInCU: 0x1BB83, offset: 0x1F343F, size: 0x8, addend: 0x0, symName: __ZN9_VampHost4Vamp7HostExt12PluginLoader4ImplC1Ev, symObjAddr: 0xA4, symBinAddr: 0x2667C, symSize: 0x3C }
  - { offsetInCU: 0x1BB99, offset: 0x1F3455, size: 0x8, addend: 0x0, symName: __ZN9_VampHost4Vamp7HostExt12PluginLoader4ImplC1Ev, symObjAddr: 0xA4, symBinAddr: 0x2667C, symSize: 0x3C }
  - { offsetInCU: 0x1BBAF, offset: 0x1F346B, size: 0x8, addend: 0x0, symName: __ZN9_VampHost4Vamp7HostExt12PluginLoader4ImplC1Ev, symObjAddr: 0xA4, symBinAddr: 0x2667C, symSize: 0x3C }
  - { offsetInCU: 0x1BBC5, offset: 0x1F3481, size: 0x8, addend: 0x0, symName: __ZN9_VampHost4Vamp7HostExt12PluginLoader4ImplC1Ev, symObjAddr: 0xA4, symBinAddr: 0x2667C, symSize: 0x3C }
  - { offsetInCU: 0x1BBDB, offset: 0x1F3497, size: 0x8, addend: 0x0, symName: __ZN9_VampHost4Vamp7HostExt12PluginLoader4ImplC1Ev, symObjAddr: 0xA4, symBinAddr: 0x2667C, symSize: 0x3C }
  - { offsetInCU: 0x1BBF1, offset: 0x1F34AD, size: 0x8, addend: 0x0, symName: __ZN9_VampHost4Vamp7HostExt12PluginLoader4ImplC1Ev, symObjAddr: 0xA4, symBinAddr: 0x2667C, symSize: 0x3C }
  - { offsetInCU: 0x1BDC9, offset: 0x1F3685, size: 0x8, addend: 0x0, symName: __ZN9_VampHost4Vamp7HostExt12PluginLoaderC1Ev, symObjAddr: 0xE0, symBinAddr: 0x266B8, symSize: 0x70 }
  - { offsetInCU: 0x1C0D3, offset: 0x1F398F, size: 0x8, addend: 0x0, symName: __ZN9_VampHost4Vamp7HostExt12PluginLoaderD2Ev, symObjAddr: 0x150, symBinAddr: 0x26728, symSize: 0x40 }
  - { offsetInCU: 0x1C11E, offset: 0x1F39DA, size: 0x8, addend: 0x0, symName: __ZN9_VampHost4Vamp7HostExt12PluginLoaderD1Ev, symObjAddr: 0x190, symBinAddr: 0x26768, symSize: 0x40 }
  - { offsetInCU: 0x1C187, offset: 0x1F3A43, size: 0x8, addend: 0x0, symName: __ZN9_VampHost4Vamp7HostExt12PluginLoaderD0Ev, symObjAddr: 0x1D0, symBinAddr: 0x267A8, symSize: 0x40 }
  - { offsetInCU: 0x1C24F, offset: 0x1F3B0B, size: 0x8, addend: 0x0, symName: __ZN9_VampHost4Vamp7HostExt12PluginLoader11getInstanceEv, symObjAddr: 0x210, symBinAddr: 0x267E8, symSize: 0xA4 }
  - { offsetInCU: 0x1C51C, offset: 0x1F3DD8, size: 0x8, addend: 0x0, symName: __ZN9_VampHost4Vamp7HostExt12PluginLoader4Impl18setInstanceToCleanEPS2_, symObjAddr: 0x2B4, symBinAddr: 0x2688C, symSize: 0xC }
  - { offsetInCU: 0x1C53B, offset: 0x1F3DF7, size: 0x8, addend: 0x0, symName: __ZN9_VampHost4Vamp7HostExt12PluginLoader4Impl18setInstanceToCleanEPS2_, symObjAddr: 0x2B4, symBinAddr: 0x2688C, symSize: 0xC }
  - { offsetInCU: 0x1C557, offset: 0x1F3E13, size: 0x8, addend: 0x0, symName: __ZN9_VampHost4Vamp7HostExt12PluginLoader11listPluginsEv, symObjAddr: 0x2C0, symBinAddr: 0x26898, symSize: 0x8 }
  - { offsetInCU: 0x1C597, offset: 0x1F3E53, size: 0x8, addend: 0x0, symName: __ZN9_VampHost4Vamp7HostExt12PluginLoader4Impl11listPluginsEv, symObjAddr: 0x2C8, symBinAddr: 0x268A0, symSize: 0x100 }
  - { offsetInCU: 0x1CC77, offset: 0x1F4533, size: 0x8, addend: 0x0, symName: __ZN9_VampHost4Vamp7HostExt12PluginLoader4Impl16enumeratePluginsENS3_11EnumerationE, symObjAddr: 0x13B4, symBinAddr: 0x2798C, symSize: 0x624 }
  - { offsetInCU: 0x1EE39, offset: 0x1F66F5, size: 0x8, addend: 0x0, symName: __ZN9_VampHost4Vamp7HostExt12PluginLoader4Impl11EnumerationD1Ev, symObjAddr: 0x19D8, symBinAddr: 0x27FB0, symSize: 0x38 }
  - { offsetInCU: 0x1F007, offset: 0x1F68C3, size: 0x8, addend: 0x0, symName: __ZN9_VampHost4Vamp7HostExt12PluginLoader13listPluginsInENSt3__16vectorINS3_12basic_stringIcNS3_11char_traitsIcEENS3_9allocatorIcEEEENS8_ISA_EEEE, symObjAddr: 0x3C8, symBinAddr: 0x269A0, symSize: 0x5C }
  - { offsetInCU: 0x1F2B2, offset: 0x1F6B6E, size: 0x8, addend: 0x0, symName: __ZN9_VampHost4Vamp7HostExt12PluginLoader4Impl13listPluginsInENSt3__16vectorINS4_12basic_stringIcNS4_11char_traitsIcEENS4_9allocatorIcEEEENS9_ISB_EEEE, symObjAddr: 0x424, symBinAddr: 0x269FC, symSize: 0x108 }
  - { offsetInCU: 0x1F977, offset: 0x1F7233, size: 0x8, addend: 0x0, symName: __ZNSt3__16vectorINS_12basic_stringIcNS_11char_traitsIcEENS_9allocatorIcEEEENS4_IS6_EEE6assignIPS6_Li0EEEvT_SB_, symObjAddr: 0x3600, symBinAddr: 0x293CC, symSize: 0x180 }
  - { offsetInCU: 0x1FFAB, offset: 0x1F7867, size: 0x8, addend: 0x0, symName: __ZN9_VampHost4Vamp7HostExt12PluginLoader16listPluginsNotInENSt3__16vectorINS3_12basic_stringIcNS3_11char_traitsIcEENS3_9allocatorIcEEEENS8_ISA_EEEE, symObjAddr: 0x52C, symBinAddr: 0x26B04, symSize: 0x5C }
  - { offsetInCU: 0x200BA, offset: 0x1F7976, size: 0x8, addend: 0x0, symName: __ZN9_VampHost4Vamp7HostExt12PluginLoader4Impl16listPluginsNotInENSt3__16vectorINS4_12basic_stringIcNS4_11char_traitsIcEENS4_9allocatorIcEEEENS9_ISB_EEEE, symObjAddr: 0x588, symBinAddr: 0x26B60, symSize: 0x108 }
  - { offsetInCU: 0x2070D, offset: 0x1F7FC9, size: 0x8, addend: 0x0, symName: __ZN9_VampHost4Vamp7HostExt12PluginLoader10loadPluginENSt3__112basic_stringIcNS3_11char_traitsIcEENS3_9allocatorIcEEEEfi, symObjAddr: 0x690, symBinAddr: 0x26C68, symSize: 0x84 }
  - { offsetInCU: 0x209FA, offset: 0x1F82B6, size: 0x8, addend: 0x0, symName: __ZN9_VampHost4Vamp7HostExt12PluginLoader4Impl10loadPluginENSt3__112basic_stringIcNS4_11char_traitsIcEENS4_9allocatorIcEEEEfi, symObjAddr: 0x714, symBinAddr: 0x26CEC, symSize: 0x6D4 }
  - { offsetInCU: 0x22603, offset: 0x1F9EBF, size: 0x8, addend: 0x0, symName: __ZN9_VampHost4Vamp7HostExt12PluginLoader4Impl18decomposePluginKeyENSt3__112basic_stringIcNS4_11char_traitsIcEENS4_9allocatorIcEEEERSA_SB_, symObjAddr: 0x1DA8, symBinAddr: 0x28268, symSize: 0xC8 }
  - { offsetInCU: 0x2294B, offset: 0x1FA207, size: 0x8, addend: 0x0, symName: __ZN9_VampHost4Vamp7HostExt12PluginLoader4Impl23getLibraryPathForPluginENSt3__112basic_stringIcNS4_11char_traitsIcEENS4_9allocatorIcEEEE, symObjAddr: 0x1150, symBinAddr: 0x27728, symSize: 0x1C4 }
  - { offsetInCU: 0x233C0, offset: 0x1FAC7C, size: 0x8, addend: 0x0, symName: __ZNSt3__16__treeINS_12__value_typeIPN9_VampHost4Vamp6PluginEPvEENS_19__map_value_compareIS5_S7_NS_4lessIS5_EELb1EEENS_9allocatorIS7_EEE25__emplace_unique_key_argsIS5_JRKNS_21piecewise_construct_tENS_5tupleIJRKS5_EEENSJ_IJEEEEEENS_4pairINS_15__tree_iteratorIS7_PNS_11__tree_nodeIS7_S6_EElEEbEERKT_DpOT0_, symObjAddr: 0x4414, symBinAddr: 0x29B60, symSize: 0xBC }
  - { offsetInCU: 0x23720, offset: 0x1FAFDC, size: 0x8, addend: 0x0, symName: __ZN9_VampHost4Vamp7HostExt12PluginLoader16composePluginKeyENSt3__112basic_stringIcNS3_11char_traitsIcEENS3_9allocatorIcEEEES9_, symObjAddr: 0xDE8, symBinAddr: 0x273C0, symSize: 0xA0 }
  - { offsetInCU: 0x23C5F, offset: 0x1FB51B, size: 0x8, addend: 0x0, symName: __ZN9_VampHost4Vamp7HostExt12PluginLoader4Impl16composePluginKeyENSt3__112basic_stringIcNS4_11char_traitsIcEENS4_9allocatorIcEEEESA_, symObjAddr: 0xE88, symBinAddr: 0x27460, symSize: 0x158 }
  - { offsetInCU: 0x249EE, offset: 0x1FC2AA, size: 0x8, addend: 0x0, symName: __ZNSt3__16__treeINS_12__value_typeINS_12basic_stringIcNS_11char_traitsIcEENS_9allocatorIcEEEENS_6vectorIS7_NS5_IS7_EEEEEENS_19__map_value_compareIS7_SB_NS_4lessIS7_EELb1EEENS5_ISB_EEE4findIS7_EENS_15__tree_iteratorISB_PNS_11__tree_nodeISB_PvEElEERKT_, symObjAddr: 0x4138, symBinAddr: 0x29884, symSize: 0x8C }
  - { offsetInCU: 0x24A00, offset: 0x1FC2BC, size: 0x8, addend: 0x0, symName: __ZN9_VampHost4Vamp7HostExt12PluginLoader17getPluginCategoryENSt3__112basic_stringIcNS3_11char_traitsIcEENS3_9allocatorIcEEEE, symObjAddr: 0xFE0, symBinAddr: 0x275B8, symSize: 0x6C }
  - { offsetInCU: 0x24CCD, offset: 0x1FC589, size: 0x8, addend: 0x0, symName: __ZN9_VampHost4Vamp7HostExt12PluginLoader4Impl17getPluginCategoryENSt3__112basic_stringIcNS4_11char_traitsIcEENS4_9allocatorIcEEEE, symObjAddr: 0x104C, symBinAddr: 0x27624, symSize: 0x98 }
  - { offsetInCU: 0x24F51, offset: 0x1FC80D, size: 0x8, addend: 0x0, symName: __ZN9_VampHost4Vamp7HostExt12PluginLoader4Impl16generateTaxonomyEv, symObjAddr: 0x1E70, symBinAddr: 0x28330, symSize: 0xC90 }
  - { offsetInCU: 0x29422, offset: 0x200CDE, size: 0x8, addend: 0x0, symName: __ZNSt3__16__treeINS_12__value_typeINS_12basic_stringIcNS_11char_traitsIcEENS_9allocatorIcEEEENS_6vectorIS7_NS5_IS7_EEEEEENS_19__map_value_compareIS7_SB_NS_4lessIS7_EELb1EEENS5_ISB_EEE4findIS7_EENS_15__tree_iteratorISB_PNS_11__tree_nodeISB_PvEElEERKT_, symObjAddr: 0x4138, symBinAddr: 0x29884, symSize: 0x8C }
  - { offsetInCU: 0x29585, offset: 0x200E41, size: 0x8, addend: 0x0, symName: __ZNSt3__16__treeINS_12__value_typeINS_12basic_stringIcNS_11char_traitsIcEENS_9allocatorIcEEEENS_6vectorIS7_NS5_IS7_EEEEEENS_19__map_value_compareIS7_SB_NS_4lessIS7_EELb1EEENS5_ISB_EEE25__emplace_unique_key_argsIS7_JRKNS_21piecewise_construct_tENS_5tupleIJRKS7_EEENSM_IJEEEEEENS_4pairINS_15__tree_iteratorISB_PNS_11__tree_nodeISB_PvEElEEbEERKT_DpOT0_, symObjAddr: 0x41C4, symBinAddr: 0x29910, symSize: 0x94 }
  - { offsetInCU: 0x29735, offset: 0x200FF1, size: 0x8, addend: 0x0, symName: __ZN9_VampHost4Vamp7HostExt12PluginLoader23getLibraryPathForPluginENSt3__112basic_stringIcNS3_11char_traitsIcEENS3_9allocatorIcEEEE, symObjAddr: 0x10E4, symBinAddr: 0x276BC, symSize: 0x6C }
  - { offsetInCU: 0x29A8C, offset: 0x201348, size: 0x8, addend: 0x0, symName: __ZNSt3__16__treeINS_12__value_typeINS_12basic_stringIcNS_11char_traitsIcEENS_9allocatorIcEEEES7_EENS_19__map_value_compareIS7_S8_NS_4lessIS7_EELb1EEENS5_IS8_EEE4findIS7_EENS_15__tree_iteratorIS8_PNS_11__tree_nodeIS8_PvEElEERKT_, symObjAddr: 0x3BD4, symBinAddr: 0x295A8, symSize: 0x8C }
  - { offsetInCU: 0x29BEF, offset: 0x2014AB, size: 0x8, addend: 0x0, symName: __ZNSt3__16__treeINS_12__value_typeINS_12basic_stringIcNS_11char_traitsIcEENS_9allocatorIcEEEES7_EENS_19__map_value_compareIS7_S8_NS_4lessIS7_EELb1EEENS5_IS8_EEE25__emplace_unique_key_argsIS7_JRKNS_21piecewise_construct_tENS_5tupleIJRKS7_EEENSJ_IJEEEEEENS_4pairINS_15__tree_iteratorIS8_PNS_11__tree_nodeIS8_PvEElEEbEERKT_DpOT0_, symObjAddr: 0x3CDC, symBinAddr: 0x29634, symSize: 0x94 }
  - { offsetInCU: 0x29D9F, offset: 0x20165B, size: 0x8, addend: 0x0, symName: __ZN9_VampHost4Vamp7HostExt12PluginLoader4ImplC2Ev, symObjAddr: 0x1314, symBinAddr: 0x278EC, symSize: 0x3C }
  - { offsetInCU: 0x29DC2, offset: 0x20167E, size: 0x8, addend: 0x0, symName: __ZN9_VampHost4Vamp7HostExt12PluginLoader4ImplC2Ev, symObjAddr: 0x1314, symBinAddr: 0x278EC, symSize: 0x3C }
  - { offsetInCU: 0x29DD7, offset: 0x201693, size: 0x8, addend: 0x0, symName: __ZN9_VampHost4Vamp7HostExt12PluginLoader4ImplC2Ev, symObjAddr: 0x1314, symBinAddr: 0x278EC, symSize: 0x3C }
  - { offsetInCU: 0x29DED, offset: 0x2016A9, size: 0x8, addend: 0x0, symName: __ZN9_VampHost4Vamp7HostExt12PluginLoader4ImplC2Ev, symObjAddr: 0x1314, symBinAddr: 0x278EC, symSize: 0x3C }
  - { offsetInCU: 0x29E03, offset: 0x2016BF, size: 0x8, addend: 0x0, symName: __ZN9_VampHost4Vamp7HostExt12PluginLoader4ImplC2Ev, symObjAddr: 0x1314, symBinAddr: 0x278EC, symSize: 0x3C }
  - { offsetInCU: 0x29E19, offset: 0x2016D5, size: 0x8, addend: 0x0, symName: __ZN9_VampHost4Vamp7HostExt12PluginLoader4ImplC2Ev, symObjAddr: 0x1314, symBinAddr: 0x278EC, symSize: 0x3C }
  - { offsetInCU: 0x29E2F, offset: 0x2016EB, size: 0x8, addend: 0x0, symName: __ZN9_VampHost4Vamp7HostExt12PluginLoader4ImplC2Ev, symObjAddr: 0x1314, symBinAddr: 0x278EC, symSize: 0x3C }
  - { offsetInCU: 0x29E45, offset: 0x201701, size: 0x8, addend: 0x0, symName: __ZN9_VampHost4Vamp7HostExt12PluginLoader4ImplC2Ev, symObjAddr: 0x1314, symBinAddr: 0x278EC, symSize: 0x3C }
  - { offsetInCU: 0x2A195, offset: 0x201A51, size: 0x8, addend: 0x0, symName: __ZN9_VampHost4Vamp7HostExt12PluginLoader4ImplD2Ev, symObjAddr: 0x1350, symBinAddr: 0x27928, symSize: 0x4C }
  - { offsetInCU: 0x2A3C9, offset: 0x201C85, size: 0x8, addend: 0x0, symName: __ZNSt3__16__treeINS_12__value_typeIPN9_VampHost4Vamp6PluginEPvEENS_19__map_value_compareIS5_S7_NS_4lessIS5_EELb1EEENS_9allocatorIS7_EEE7destroyEPNS_11__tree_nodeIS7_S6_EE, symObjAddr: 0x33B0, symBinAddr: 0x2938C, symSize: 0x40 }
  - { offsetInCU: 0x2A514, offset: 0x201DD0, size: 0x8, addend: 0x0, symName: __ZNSt3__16__treeINS_12__value_typeINS_12basic_stringIcNS_11char_traitsIcEENS_9allocatorIcEEEENS_6vectorIS7_NS5_IS7_EEEEEENS_19__map_value_compareIS7_SB_NS_4lessIS7_EELb1EEENS5_ISB_EEE7destroyEPNS_11__tree_nodeISB_PvEE, symObjAddr: 0x3328, symBinAddr: 0x29304, symSize: 0x4C }
  - { offsetInCU: 0x2A69F, offset: 0x201F5B, size: 0x8, addend: 0x0, symName: __ZNSt3__16__treeINS_12__value_typeINS_12basic_stringIcNS_11char_traitsIcEENS_9allocatorIcEEEES7_EENS_19__map_value_compareIS7_S8_NS_4lessIS7_EELb1EEENS5_IS8_EEE7destroyEPNS_11__tree_nodeIS8_PvEE, symObjAddr: 0x3298, symBinAddr: 0x29274, symSize: 0x4C }
  - { offsetInCU: 0x2A82A, offset: 0x2020E6, size: 0x8, addend: 0x0, symName: __ZN9_VampHost4Vamp7HostExt12PluginLoader4ImplD1Ev, symObjAddr: 0x139C, symBinAddr: 0x27974, symSize: 0x4 }
  - { offsetInCU: 0x2A84E, offset: 0x20210A, size: 0x8, addend: 0x0, symName: __ZN9_VampHost4Vamp7HostExt12PluginLoader4ImplD1Ev, symObjAddr: 0x139C, symBinAddr: 0x27974, symSize: 0x4 }
  - { offsetInCU: 0x2A87D, offset: 0x202139, size: 0x8, addend: 0x0, symName: __ZN9_VampHost4Vamp7HostExt12PluginLoader4ImplD0Ev, symObjAddr: 0x13A0, symBinAddr: 0x27978, symSize: 0x14 }
  - { offsetInCU: 0x2A9B9, offset: 0x202275, size: 0x8, addend: 0x0, symName: __ZN9_VampHost4Vamp7HostExt12PluginLoader4Impl19listLibraryFilesForENS3_11EnumerationE, symObjAddr: 0x1B28, symBinAddr: 0x27FE8, symSize: 0x280 }
  - { offsetInCU: 0x2C10C, offset: 0x2039C8, size: 0x8, addend: 0x0, symName: __ZNSt3__114basic_ifstreamIcNS_11char_traitsIcEEEC1EPKcj, symObjAddr: 0x2B30, symBinAddr: 0x28FF0, symSize: 0x10C }
  - { offsetInCU: 0x2C1FE, offset: 0x203ABA, size: 0x8, addend: 0x0, symName: __ZN9_VampHost4Vamp7HostExt12PluginLoader4Impl27PluginDeletionNotifyAdapterC1EPNS0_6PluginEPS3_, symObjAddr: 0x2B00, symBinAddr: 0x28FC0, symSize: 0x30 }
  - { offsetInCU: 0x2C3F7, offset: 0x203CB3, size: 0x8, addend: 0x0, symName: __ZN9_VampHost4Vamp7HostExt12PluginLoader4Impl13pluginDeletedEPNS3_27PluginDeletionNotifyAdapterE, symObjAddr: 0x2C3C, symBinAddr: 0x290FC, symSize: 0xD0 }
  - { offsetInCU: 0x2C64F, offset: 0x203F0B, size: 0x8, addend: 0x0, symName: __ZNSt3__16__treeINS_12__value_typeIPN9_VampHost4Vamp6PluginEPvEENS_19__map_value_compareIS5_S7_NS_4lessIS5_EELb1EEENS_9allocatorIS7_EEE25__emplace_unique_key_argsIS5_JRKNS_21piecewise_construct_tENS_5tupleIJOS5_EEENSJ_IJEEEEEENS_4pairINS_15__tree_iteratorIS7_PNS_11__tree_nodeIS7_S6_EElEEbEERKT_DpOT0_, symObjAddr: 0x4524, symBinAddr: 0x29C70, symSize: 0xBC }
  - { offsetInCU: 0x2C9AF, offset: 0x20426B, size: 0x8, addend: 0x0, symName: __ZNSt3__16__treeINS_12__value_typeIPN9_VampHost4Vamp6PluginEPvEENS_19__map_value_compareIS5_S7_NS_4lessIS5_EELb1EEENS_9allocatorIS7_EEE14__erase_uniqueIS5_EEmRKT_, symObjAddr: 0x45E0, symBinAddr: 0x29D2C, symSize: 0x78 }
  - { offsetInCU: 0x2CC3F, offset: 0x2044FB, size: 0x8, addend: 0x0, symName: __ZN9_VampHost4Vamp7HostExt12PluginLoader4Impl27PluginDeletionNotifyAdapterC2EPNS0_6PluginEPS3_, symObjAddr: 0x2D0C, symBinAddr: 0x291CC, symSize: 0x30 }
  - { offsetInCU: 0x2CC74, offset: 0x204530, size: 0x8, addend: 0x0, symName: __ZN9_VampHost4Vamp7HostExt12PluginLoader4Impl27PluginDeletionNotifyAdapterD2Ev, symObjAddr: 0x2D3C, symBinAddr: 0x291FC, symSize: 0x60 }
  - { offsetInCU: 0x2CCC1, offset: 0x20457D, size: 0x8, addend: 0x0, symName: __ZN9_VampHost4Vamp7HostExt12PluginLoader4Impl27PluginDeletionNotifyAdapterD1Ev, symObjAddr: 0x2DA8, symBinAddr: 0x2925C, symSize: 0x4 }
  - { offsetInCU: 0x2CCE5, offset: 0x2045A1, size: 0x8, addend: 0x0, symName: __ZN9_VampHost4Vamp7HostExt12PluginLoader4Impl27PluginDeletionNotifyAdapterD1Ev, symObjAddr: 0x2DA8, symBinAddr: 0x2925C, symSize: 0x4 }
  - { offsetInCU: 0x2CD15, offset: 0x2045D1, size: 0x8, addend: 0x0, symName: __ZN9_VampHost4Vamp7HostExt12PluginLoader4Impl27PluginDeletionNotifyAdapterD0Ev, symObjAddr: 0x2DAC, symBinAddr: 0x29260, symSize: 0x14 }
  - { offsetInCU: 0x2D6FB, offset: 0x204FB7, size: 0x8, addend: 0x0, symName: __ZNSt3__116allocator_traitsINS_9allocatorINS_11__tree_nodeINS_12__value_typeINS_12basic_stringIcNS_11char_traitsIcEENS1_IcEEEES8_EEPvEEEEE7destroyB7v160006INS_4pairIKS8_S8_EEvvEEvRSC_PT_, symObjAddr: 0x32E4, symBinAddr: 0x292C0, symSize: 0x44 }
  - { offsetInCU: 0x2DA65, offset: 0x205321, size: 0x8, addend: 0x0, symName: __ZNSt3__116allocator_traitsINS_9allocatorINS_11__tree_nodeINS_12__value_typeINS_12basic_stringIcNS_11char_traitsIcEENS1_IcEEEENS_6vectorIS8_NS1_IS8_EEEEEEPvEEEEE7destroyB7v160006INS_4pairIKS8_SB_EEvvEEvRSF_PT_, symObjAddr: 0x3374, symBinAddr: 0x29350, symSize: 0x3C }
  - { offsetInCU: 0x2E7C1, offset: 0x20607D, size: 0x8, addend: 0x0, symName: __ZNSt3__16__treeINS_12__value_typeINS_12basic_stringIcNS_11char_traitsIcEENS_9allocatorIcEEEES7_EENS_19__map_value_compareIS7_S8_NS_4lessIS7_EELb1EEENS5_IS8_EEE12__find_equalIS7_EERPNS_16__tree_node_baseIPvEERPNS_15__tree_end_nodeISJ_EERKT_, symObjAddr: 0x3D70, symBinAddr: 0x296C8, symSize: 0x9C }
  - { offsetInCU: 0x2E8FD, offset: 0x2061B9, size: 0x8, addend: 0x0, symName: __ZNSt3__16__treeINS_12__value_typeINS_12basic_stringIcNS_11char_traitsIcEENS_9allocatorIcEEEES7_EENS_19__map_value_compareIS7_S8_NS_4lessIS7_EELb1EEENS5_IS8_EEE16__construct_nodeIJRKNS_21piecewise_construct_tENS_5tupleIJRKS7_EEENSJ_IJEEEEEENS_10unique_ptrINS_11__tree_nodeIS8_PvEENS_22__tree_node_destructorINS5_ISR_EEEEEEDpOT_, symObjAddr: 0x3E0C, symBinAddr: 0x29764, symSize: 0x88 }
  - { offsetInCU: 0x2ECA8, offset: 0x206564, size: 0x8, addend: 0x0, symName: __ZNSt3__16__treeINS_12__value_typeINS_12basic_stringIcNS_11char_traitsIcEENS_9allocatorIcEEEES7_EENS_19__map_value_compareIS7_S8_NS_4lessIS7_EELb1EEENS5_IS8_EEE16__insert_node_atEPNS_15__tree_end_nodeIPNS_16__tree_node_baseIPvEEEERSJ_SJ_, symObjAddr: 0x3E94, symBinAddr: 0x297EC, symSize: 0x54 }
  - { offsetInCU: 0x2F14B, offset: 0x206A07, size: 0x8, addend: 0x0, symName: __ZNSt3__122__tree_node_destructorINS_9allocatorINS_11__tree_nodeINS_12__value_typeINS_12basic_stringIcNS_11char_traitsIcEENS1_IcEEEES8_EEPvEEEEEclB7v160006EPSB_, symObjAddr: 0x4080, symBinAddr: 0x29840, symSize: 0x44 }
  - { offsetInCU: 0x2F3D6, offset: 0x206C92, size: 0x8, addend: 0x0, symName: __ZNSt3__16__treeINS_12__value_typeINS_12basic_stringIcNS_11char_traitsIcEENS_9allocatorIcEEEENS_6vectorIS7_NS5_IS7_EEEEEENS_19__map_value_compareIS7_SB_NS_4lessIS7_EELb1EEENS5_ISB_EEE12__find_equalIS7_EERPNS_16__tree_node_baseIPvEERPNS_15__tree_end_nodeISM_EERKT_, symObjAddr: 0x4258, symBinAddr: 0x299A4, symSize: 0x9C }
  - { offsetInCU: 0x2F512, offset: 0x206DCE, size: 0x8, addend: 0x0, symName: __ZNSt3__16__treeINS_12__value_typeINS_12basic_stringIcNS_11char_traitsIcEENS_9allocatorIcEEEENS_6vectorIS7_NS5_IS7_EEEEEENS_19__map_value_compareIS7_SB_NS_4lessIS7_EELb1EEENS5_ISB_EEE16__construct_nodeIJRKNS_21piecewise_construct_tENS_5tupleIJRKS7_EEENSM_IJEEEEEENS_10unique_ptrINS_11__tree_nodeISB_PvEENS_22__tree_node_destructorINS5_ISU_EEEEEEDpOT_, symObjAddr: 0x42F4, symBinAddr: 0x29A40, symSize: 0x88 }
  - { offsetInCU: 0x2F89C, offset: 0x207158, size: 0x8, addend: 0x0, symName: __ZNSt3__16__treeINS_12__value_typeINS_12basic_stringIcNS_11char_traitsIcEENS_9allocatorIcEEEENS_6vectorIS7_NS5_IS7_EEEEEENS_19__map_value_compareIS7_SB_NS_4lessIS7_EELb1EEENS5_ISB_EEE16__insert_node_atEPNS_15__tree_end_nodeIPNS_16__tree_node_baseIPvEEEERSM_SM_, symObjAddr: 0x437C, symBinAddr: 0x29AC8, symSize: 0x54 }
  - { offsetInCU: 0x2FD3F, offset: 0x2075FB, size: 0x8, addend: 0x0, symName: __ZNSt3__122__tree_node_destructorINS_9allocatorINS_11__tree_nodeINS_12__value_typeINS_12basic_stringIcNS_11char_traitsIcEENS1_IcEEEENS_6vectorIS8_NS1_IS8_EEEEEEPvEEEEEclB7v160006EPSE_, symObjAddr: 0x43D0, symBinAddr: 0x29B1C, symSize: 0x44 }
  - { offsetInCU: 0x301F1, offset: 0x207AAD, size: 0x8, addend: 0x0, symName: __ZNSt3__16__treeINS_12__value_typeIPN9_VampHost4Vamp6PluginEPvEENS_19__map_value_compareIS5_S7_NS_4lessIS5_EELb1EEENS_9allocatorIS7_EEE16__insert_node_atEPNS_15__tree_end_nodeIPNS_16__tree_node_baseIS6_EEEERSI_SI_, symObjAddr: 0x44D0, symBinAddr: 0x29C1C, symSize: 0x54 }
  - { offsetInCU: 0x305EB, offset: 0x207EA7, size: 0x8, addend: 0x0, symName: __ZNSt3__16__treeINS_12__value_typeIPN9_VampHost4Vamp6PluginEPvEENS_19__map_value_compareIS5_S7_NS_4lessIS5_EELb1EEENS_9allocatorIS7_EEE21__remove_node_pointerEPNS_11__tree_nodeIS7_S6_EE, symObjAddr: 0x4658, symBinAddr: 0x29DA4, symSize: 0x70 }
...
